

Microchip MPLAB XC8 Assembler V2.20 build 20200408173844 
                                                                                               Wed Jun 10 11:33:10 2020

Microchip MPLAB XC8 C Compiler v2.20 (Free license) build 20200408173844 Og1 
     1                           	processor	16F1936
     2                           	pagewidth 120
     3                           	opt	flic
     4                           	psect	cinit,global,class=CODE,merge=1,delta=2
     5                           	psect	cstackCOMMON,global,class=COMMON,space=1,delta=1,noexec
     6                           	psect	cstackBANK0,global,class=BANK0,space=1,delta=1,noexec
     7                           	psect	maintext,global,class=CODE,merge=1,split=1,delta=2
     8                           	psect	text1,local,class=CODE,merge=1,delta=2,group=1
     9                           	psect	text2,local,class=CODE,merge=1,delta=2,group=1
    10                           	psect	text3,local,class=CODE,merge=1,delta=2,group=1
    11                           	psect	text4,local,class=CODE,merge=1,delta=2,group=1
    12                           	psect	text5,local,class=CODE,merge=1,delta=2,group=1
    13                           	dabs	1,0x7E,2
    14  0000                     
    15                           ; Version 2.20
    16                           ; Generated 12/02/2020 GMT
    17                           ; 
    18                           ; Copyright © 2020, Microchip Technology Inc. and its subsidiaries ("Microchip")
    19                           ; All rights reserved.
    20                           ; 
    21                           ; This software is developed by Microchip Technology Inc. and its subsidiaries ("Microch
      +                          ip").
    22                           ; 
    23                           ; Redistribution and use in source and binary forms, with or without modification, are
    24                           ; permitted provided that the following conditions are met:
    25                           ; 
    26                           ;     1. Redistributions of source code must retain the above copyright notice, this lis
      +                          t of
    27                           ;        conditions and the following disclaimer.
    28                           ; 
    29                           ;     2. Redistributions in binary form must reproduce the above copyright notice, this 
      +                          list
    30                           ;        of conditions and the following disclaimer in the documentation and/or other
    31                           ;        materials provided with the distribution.
    32                           ; 
    33                           ;     3. Microchip's name may not be used to endorse or promote products derived from th
      +                          is
    34                           ;        software without specific prior written permission.
    35                           ; 
    36                           ; THIS SOFTWARE IS PROVIDED BY MICROCHIP "AS IS" AND ANY EXPRESS OR IMPLIED WARRANTIES,
    37                           ; INCLUDING, BUT NOT LIMITED TO, THE IMPLIED WARRANTIES OF MERCHANTABILITY AND FITNESS F
      +                          OR
    38                           ; PURPOSE ARE DISCLAIMED.  IN NO EVENT SHALL MICROCHIP BE LIABLE FOR ANY DIRECT, INDIREC
      +                          T,
    39                           ; INCIDENTAL, SPECIAL, EXEMPLARY, OR CONSEQUENTIAL DAMAGES (INCLUDING BUT NOT LIMITED TO
    40                           ; PROCUREMENT OF SUBSTITUTE GOODS OR SERVICES; LOSS OF USE, DATA OR PROFITS; OR BUSINESS
    41                           ; INTERRUPTION) HOWSOEVER CAUSED AND ON ANY THEORY OF LIABILITY, WHETHER IN CONTRACT, ST
      +                          RICT
    42                           ; LIABILITY, OR TORT (INCLUDING NEGLIGENCE OR OTHERWISE) ARISING IN ANY WAY OUT OF THE U
      +                          SE OF
    43                           ; THIS SOFTWARE, EVEN IF ADVISED OF THE POSSIBILITY OF SUCH DAMAGE.
    44                           ; 
    45                           ; 
    46                           ; Code-generator required, PIC16F1936 Definitions
    47                           ; 
    48                           ; SFR Addresses
    49  0000                     	;# 
    50  0001                     	;# 
    51  0002                     	;# 
    52  0003                     	;# 
    53  0004                     	;# 
    54  0005                     	;# 
    55  0006                     	;# 
    56  0007                     	;# 
    57  0008                     	;# 
    58  0009                     	;# 
    59  000A                     	;# 
    60  000B                     	;# 
    61  000C                     	;# 
    62  000D                     	;# 
    63  000E                     	;# 
    64  0010                     	;# 
    65  0011                     	;# 
    66  0012                     	;# 
    67  0013                     	;# 
    68  0015                     	;# 
    69  0016                     	;# 
    70  0016                     	;# 
    71  0017                     	;# 
    72  0018                     	;# 
    73  0019                     	;# 
    74  001A                     	;# 
    75  001B                     	;# 
    76  001C                     	;# 
    77  001E                     	;# 
    78  001F                     	;# 
    79  008C                     	;# 
    80  008D                     	;# 
    81  008E                     	;# 
    82  0090                     	;# 
    83  0091                     	;# 
    84  0092                     	;# 
    85  0093                     	;# 
    86  0095                     	;# 
    87  0096                     	;# 
    88  0097                     	;# 
    89  0098                     	;# 
    90  0099                     	;# 
    91  009A                     	;# 
    92  009B                     	;# 
    93  009B                     	;# 
    94  009C                     	;# 
    95  009D                     	;# 
    96  009E                     	;# 
    97  010C                     	;# 
    98  010D                     	;# 
    99  010E                     	;# 
   100  0110                     	;# 
   101  0111                     	;# 
   102  0112                     	;# 
   103  0113                     	;# 
   104  0114                     	;# 
   105  0115                     	;# 
   106  0116                     	;# 
   107  0117                     	;# 
   108  0118                     	;# 
   109  0119                     	;# 
   110  011A                     	;# 
   111  011B                     	;# 
   112  011D                     	;# 
   113  018C                     	;# 
   114  018D                     	;# 
   115  0191                     	;# 
   116  0191                     	;# 
   117  0192                     	;# 
   118  0193                     	;# 
   119  0193                     	;# 
   120  0193                     	;# 
   121  0194                     	;# 
   122  0195                     	;# 
   123  0196                     	;# 
   124  0199                     	;# 
   125  019A                     	;# 
   126  019B                     	;# 
   127  019B                     	;# 
   128  019B                     	;# 
   129  019B                     	;# 
   130  019C                     	;# 
   131  019C                     	;# 
   132  019D                     	;# 
   133  019E                     	;# 
   134  019F                     	;# 
   135  020D                     	;# 
   136  0210                     	;# 
   137  0211                     	;# 
   138  0212                     	;# 
   139  0213                     	;# 
   140  0214                     	;# 
   141  0215                     	;# 
   142  0215                     	;# 
   143  0216                     	;# 
   144  0217                     	;# 
   145  0291                     	;# 
   146  0291                     	;# 
   147  0292                     	;# 
   148  0293                     	;# 
   149  0294                     	;# 
   150  0295                     	;# 
   151  0295                     	;# 
   152  0296                     	;# 
   153  0298                     	;# 
   154  0298                     	;# 
   155  0299                     	;# 
   156  029A                     	;# 
   157  029B                     	;# 
   158  029C                     	;# 
   159  029C                     	;# 
   160  029D                     	;# 
   161  029E                     	;# 
   162  029F                     	;# 
   163  0311                     	;# 
   164  0311                     	;# 
   165  0312                     	;# 
   166  0313                     	;# 
   167  0314                     	;# 
   168  0315                     	;# 
   169  0315                     	;# 
   170  0316                     	;# 
   171  0318                     	;# 
   172  0318                     	;# 
   173  0319                     	;# 
   174  031A                     	;# 
   175  031C                     	;# 
   176  031C                     	;# 
   177  031D                     	;# 
   178  031E                     	;# 
   179  0394                     	;# 
   180  0395                     	;# 
   181  0396                     	;# 
   182  0415                     	;# 
   183  0416                     	;# 
   184  0417                     	;# 
   185  041C                     	;# 
   186  041D                     	;# 
   187  041E                     	;# 
   188  0791                     	;# 
   189  0792                     	;# 
   190  0793                     	;# 
   191  0794                     	;# 
   192  0795                     	;# 
   193  0798                     	;# 
   194  0799                     	;# 
   195  07A0                     	;# 
   196  07A1                     	;# 
   197  07A3                     	;# 
   198  07A4                     	;# 
   199  07A6                     	;# 
   200  07A7                     	;# 
   201  07A9                     	;# 
   202  07AA                     	;# 
   203  0FE4                     	;# 
   204  0FE5                     	;# 
   205  0FE6                     	;# 
   206  0FE7                     	;# 
   207  0FE8                     	;# 
   208  0FE9                     	;# 
   209  0FEA                     	;# 
   210  0FEB                     	;# 
   211  0FED                     	;# 
   212  0FEE                     	;# 
   213  0FEF                     	;# 
   214  0000                     	;# 
   215  0001                     	;# 
   216  0002                     	;# 
   217  0003                     	;# 
   218  0004                     	;# 
   219  0005                     	;# 
   220  0006                     	;# 
   221  0007                     	;# 
   222  0008                     	;# 
   223  0009                     	;# 
   224  000A                     	;# 
   225  000B                     	;# 
   226  000C                     	;# 
   227  000D                     	;# 
   228  000E                     	;# 
   229  0010                     	;# 
   230  0011                     	;# 
   231  0012                     	;# 
   232  0013                     	;# 
   233  0015                     	;# 
   234  0016                     	;# 
   235  0016                     	;# 
   236  0017                     	;# 
   237  0018                     	;# 
   238  0019                     	;# 
   239  001A                     	;# 
   240  001B                     	;# 
   241  001C                     	;# 
   242  001E                     	;# 
   243  001F                     	;# 
   244  008C                     	;# 
   245  008D                     	;# 
   246  008E                     	;# 
   247  0090                     	;# 
   248  0091                     	;# 
   249  0092                     	;# 
   250  0093                     	;# 
   251  0095                     	;# 
   252  0096                     	;# 
   253  0097                     	;# 
   254  0098                     	;# 
   255  0099                     	;# 
   256  009A                     	;# 
   257  009B                     	;# 
   258  009B                     	;# 
   259  009C                     	;# 
   260  009D                     	;# 
   261  009E                     	;# 
   262  010C                     	;# 
   263  010D                     	;# 
   264  010E                     	;# 
   265  0110                     	;# 
   266  0111                     	;# 
   267  0112                     	;# 
   268  0113                     	;# 
   269  0114                     	;# 
   270  0115                     	;# 
   271  0116                     	;# 
   272  0117                     	;# 
   273  0118                     	;# 
   274  0119                     	;# 
   275  011A                     	;# 
   276  011B                     	;# 
   277  011D                     	;# 
   278  018C                     	;# 
   279  018D                     	;# 
   280  0191                     	;# 
   281  0191                     	;# 
   282  0192                     	;# 
   283  0193                     	;# 
   284  0193                     	;# 
   285  0193                     	;# 
   286  0194                     	;# 
   287  0195                     	;# 
   288  0196                     	;# 
   289  0199                     	;# 
   290  019A                     	;# 
   291  019B                     	;# 
   292  019B                     	;# 
   293  019B                     	;# 
   294  019B                     	;# 
   295  019C                     	;# 
   296  019C                     	;# 
   297  019D                     	;# 
   298  019E                     	;# 
   299  019F                     	;# 
   300  020D                     	;# 
   301  0210                     	;# 
   302  0211                     	;# 
   303  0212                     	;# 
   304  0213                     	;# 
   305  0214                     	;# 
   306  0215                     	;# 
   307  0215                     	;# 
   308  0216                     	;# 
   309  0217                     	;# 
   310  0291                     	;# 
   311  0291                     	;# 
   312  0292                     	;# 
   313  0293                     	;# 
   314  0294                     	;# 
   315  0295                     	;# 
   316  0295                     	;# 
   317  0296                     	;# 
   318  0298                     	;# 
   319  0298                     	;# 
   320  0299                     	;# 
   321  029A                     	;# 
   322  029B                     	;# 
   323  029C                     	;# 
   324  029C                     	;# 
   325  029D                     	;# 
   326  029E                     	;# 
   327  029F                     	;# 
   328  0311                     	;# 
   329  0311                     	;# 
   330  0312                     	;# 
   331  0313                     	;# 
   332  0314                     	;# 
   333  0315                     	;# 
   334  0315                     	;# 
   335  0316                     	;# 
   336  0318                     	;# 
   337  0318                     	;# 
   338  0319                     	;# 
   339  031A                     	;# 
   340  031C                     	;# 
   341  031C                     	;# 
   342  031D                     	;# 
   343  031E                     	;# 
   344  0394                     	;# 
   345  0395                     	;# 
   346  0396                     	;# 
   347  0415                     	;# 
   348  0416                     	;# 
   349  0417                     	;# 
   350  041C                     	;# 
   351  041D                     	;# 
   352  041E                     	;# 
   353  0791                     	;# 
   354  0792                     	;# 
   355  0793                     	;# 
   356  0794                     	;# 
   357  0795                     	;# 
   358  0798                     	;# 
   359  0799                     	;# 
   360  07A0                     	;# 
   361  07A1                     	;# 
   362  07A3                     	;# 
   363  07A4                     	;# 
   364  07A6                     	;# 
   365  07A7                     	;# 
   366  07A9                     	;# 
   367  07AA                     	;# 
   368  0FE4                     	;# 
   369  0FE5                     	;# 
   370  0FE6                     	;# 
   371  0FE7                     	;# 
   372  0FE8                     	;# 
   373  0FE9                     	;# 
   374  0FEA                     	;# 
   375  0FEB                     	;# 
   376  0FED                     	;# 
   377  0FEE                     	;# 
   378  0FEF                     	;# 
   379  009C                     _ADRESH	set	156
   380  009B                     _ADRESL	set	155
   381  009D                     _ADCON0bits	set	157
   382  009E                     _ADCON1	set	158
   383  009D                     _ADCON0	set	157
   384  0119                     _DACCON1	set	281
   385  0118                     _DACCON0	set	280
   386                           
   387                           	psect	cinit
   388  07FD                     start_initialization:	
   389                           ; #config settings
   390                           
   391  07FD                     __initialization:
   392  07FD                     end_of_initialization:	
   393                           ;End of C runtime variable initialization code
   394                           
   395  07FD                     __end_of__initialization:
   396  07FD  0020               	movlb	0
   397  07FE  3182  2ABE         	ljmp	_main	;jump to C main() function
   398                           
   399                           	psect	cstackCOMMON
   400  0070                     __pcstackCOMMON:
   401  0070                     ?_main:
   402  0070                     ?__Umul8_16:	
   403                           ; 1 bytes @ 0x0
   404                           
   405  0070                     ?___xxtofl:	
   406                           ; 2 bytes @ 0x0
   407                           
   408  0070                     __Umul8_16@multiplicand:	
   409                           ; 4 bytes @ 0x0
   410                           
   411  0070                     ___xxtofl@val:	
   412                           ; 1 bytes @ 0x0
   413                           
   414                           
   415                           ; 4 bytes @ 0x0
   416  0070                     	ds	2
   417  0072                     ??__Umul8_16:
   418                           
   419                           ; 1 bytes @ 0x2
   420  0072                     	ds	2
   421  0074                     ??___xxtofl:
   422  0074                     __Umul8_16@product:	
   423                           ; 1 bytes @ 0x4
   424                           
   425                           
   426                           ; 2 bytes @ 0x4
   427  0074                     	ds	2
   428  0076                     __Umul8_16@word_mpld:
   429                           
   430                           ; 2 bytes @ 0x6
   431  0076                     	ds	2
   432  0078                     __Umul8_16@multiplier:
   433  0078                     ___xxtofl@sign:	
   434                           ; 1 bytes @ 0x8
   435                           
   436                           
   437                           ; 1 bytes @ 0x8
   438  0078                     	ds	1
   439  0079                     ___xxtofl@exp:
   440                           
   441                           ; 1 bytes @ 0x9
   442  0079                     	ds	1
   443  007A                     ___xxtofl@arg:
   444                           
   445                           ; 4 bytes @ 0xA
   446  007A                     	ds	4
   447                           
   448                           	psect	cstackBANK0
   449  0020                     __pcstackBANK0:
   450  0020                     ?___flmul:
   451  0020                     ___flmul@b:	
   452                           ; 4 bytes @ 0x0
   453                           
   454                           
   455                           ; 4 bytes @ 0x0
   456  0020                     	ds	4
   457  0024                     ___flmul@a:
   458                           
   459                           ; 4 bytes @ 0x4
   460  0024                     	ds	4
   461  0028                     ??___flmul:
   462                           
   463                           ; 1 bytes @ 0x8
   464  0028                     	ds	5
   465  002D                     ___flmul@sign:
   466                           
   467                           ; 1 bytes @ 0xD
   468  002D                     	ds	1
   469  002E                     ___flmul@grs:
   470                           
   471                           ; 4 bytes @ 0xE
   472  002E                     	ds	4
   473  0032                     ___flmul@aexp:
   474                           
   475                           ; 1 bytes @ 0x12
   476  0032                     	ds	1
   477  0033                     ___flmul@bexp:
   478                           
   479                           ; 1 bytes @ 0x13
   480  0033                     	ds	1
   481  0034                     ___flmul@prod:
   482                           
   483                           ; 4 bytes @ 0x14
   484  0034                     	ds	4
   485  0038                     ___flmul@temp:
   486                           
   487                           ; 2 bytes @ 0x18
   488  0038                     	ds	2
   489  003A                     ?___fldiv:
   490  003A                     ___fldiv@a:	
   491                           ; 4 bytes @ 0x1A
   492                           
   493                           
   494                           ; 4 bytes @ 0x1A
   495  003A                     	ds	4
   496  003E                     ___fldiv@b:
   497                           
   498                           ; 4 bytes @ 0x1E
   499  003E                     	ds	4
   500  0042                     ??___fldiv:
   501                           
   502                           ; 1 bytes @ 0x22
   503  0042                     	ds	5
   504  0047                     ___fldiv@rem:
   505                           
   506                           ; 4 bytes @ 0x27
   507  0047                     	ds	4
   508  004B                     ___fldiv@sign:
   509                           
   510                           ; 1 bytes @ 0x2B
   511  004B                     	ds	1
   512  004C                     ___fldiv@new_exp:
   513                           
   514                           ; 2 bytes @ 0x2C
   515  004C                     	ds	2
   516  004E                     ___fldiv@grs:
   517                           
   518                           ; 4 bytes @ 0x2E
   519  004E                     	ds	4
   520  0052                     ___fldiv@bexp:
   521                           
   522                           ; 1 bytes @ 0x32
   523  0052                     	ds	1
   524  0053                     ___fldiv@aexp:
   525                           
   526                           ; 1 bytes @ 0x33
   527  0053                     	ds	1
   528  0054                     ?___fltol:
   529  0054                     ___fltol@f1:	
   530                           ; 4 bytes @ 0x34
   531                           
   532                           
   533                           ; 4 bytes @ 0x34
   534  0054                     	ds	4
   535  0058                     ??___fltol:
   536                           
   537                           ; 1 bytes @ 0x38
   538  0058                     	ds	5
   539  005D                     ___fltol@sign1:
   540                           
   541                           ; 1 bytes @ 0x3D
   542  005D                     	ds	1
   543  005E                     ___fltol@exp1:
   544                           
   545                           ; 1 bytes @ 0x3E
   546  005E                     	ds	1
   547  005F                     ??_main:
   548                           
   549                           ; 1 bytes @ 0x3F
   550  005F                     	ds	3
   551  0062                     _main$716:
   552                           
   553                           ; 4 bytes @ 0x42
   554  0062                     	ds	4
   555  0066                     main@v:
   556                           
   557                           ; 2 bytes @ 0x46
   558  0066                     	ds	2
   559  0068                     main@a:
   560                           
   561                           ; 2 bytes @ 0x48
   562  0068                     	ds	2
   563                           
   564                           	psect	maintext
   565  02BE                     __pmaintext:	
   566 ;;
   567 ;;Main: autosize = 0, tempsize = 3, incstack = 0, save=0
   568 ;;
   569 ;; *************** function _main *****************
   570 ;; Defined at:
   571 ;;		line 21 in file "newmain.c"
   572 ;; Parameters:    Size  Location     Type
   573 ;;		None
   574 ;; Auto vars:     Size  Location     Type
   575 ;;  a               2   72[BANK0 ] unsigned int 
   576 ;;  v               2   70[BANK0 ] unsigned int 
   577 ;; Return value:  Size  Location     Type
   578 ;;                  1    wreg      void 
   579 ;; Registers used:
   580 ;;		wreg, status,2, status,0, pclath, cstack
   581 ;; Tracked objects:
   582 ;;		On entry : B1F/0
   583 ;;		On exit  : 0/0
   584 ;;		Unchanged: 0/0
   585 ;; Data sizes:     COMMON   BANK0   BANK1   BANK2   BANK3   BANK4   BANK5   BANK6
   586 ;;      Params:         0       0       0       0       0       0       0       0
   587 ;;      Locals:         0       8       0       0       0       0       0       0
   588 ;;      Temps:          0       3       0       0       0       0       0       0
   589 ;;      Totals:         0      11       0       0       0       0       0       0
   590 ;;Total ram usage:       11 bytes
   591 ;; Hardware stack levels required when called:    2
   592 ;; This function calls:
   593 ;;		___fldiv
   594 ;;		___flmul
   595 ;;		___fltol
   596 ;;		___xxtofl
   597 ;; This function is called by:
   598 ;;		Startup code after reset
   599 ;; This function uses a non-reentrant model
   600 ;;
   601                           
   602                           
   603                           ;psect for function _main
   604  02BE                     _main:
   605  02BE                     l1408:	
   606                           ;incstack = 0
   607                           ; Regs used in _main: [wreg+status,2+status,0+pclath+cstack]
   608                           
   609                           
   610                           ;newmain.c: 23:     unsigned int a,v;;newmain.c: 25:     ADCON0=0;
   611  02BE  0021               	movlb	1	; select bank1
   612  02BF  019D               	clrf	29	;volatile
   613  02C0                     l1410:
   614                           
   615                           ;newmain.c: 26:     ADCON1=0xA0;
   616  02C0  30A0               	movlw	160
   617  02C1  009E               	movwf	30	;volatile
   618  02C2                     l1412:
   619                           
   620                           ;newmain.c: 27:     ADCON0bits.ADON=1;
   621  02C2  141D               	bsf	29,0	;volatile
   622  02C3                     l1414:
   623                           
   624                           ;newmain.c: 30:     {;newmain.c: 31:      ADCON0bits.GO=1;
   625  02C3  0021               	movlb	1	; select bank1
   626  02C4  149D               	bsf	29,1	;volatile
   627  02C5                     l25:	
   628                           ;newmain.c: 32:     while(ADCON0bits.GO==1) ;
   629                           
   630  02C5  189D               	btfsc	29,1	;volatile
   631  02C6  2AC8               	goto	u1671
   632  02C7  2AC9               	goto	u1670
   633  02C8                     u1671:
   634  02C8  2AC5               	goto	l25
   635  02C9                     u1670:
   636  02C9                     l1416:
   637                           
   638                           ;newmain.c: 33:     a=ADRESL;
   639  02C9  081B               	movf	27,w	;volatile
   640  02CA  0020               	movlb	0	; select bank0
   641  02CB  00DF               	movwf	??_main
   642  02CC  01E0               	clrf	??_main+1
   643  02CD  085F               	movf	??_main,w
   644  02CE  00E8               	movwf	main@a
   645  02CF  0860               	movf	??_main+1,w
   646  02D0  00E9               	movwf	main@a+1
   647                           
   648                           ;newmain.c: 34:     a|=(ADRESH<<8);
   649  02D1  0021               	movlb	1	; select bank1
   650  02D2  081C               	movf	28,w	;volatile
   651  02D3  0020               	movlb	0	; select bank0
   652  02D4  00DF               	movwf	??_main
   653  02D5  01E0               	clrf	??_main+1
   654  02D6  085F               	movf	??_main,w
   655  02D7  00E0               	movwf	??_main+1
   656  02D8  01DF               	clrf	??_main
   657  02D9  085F               	movf	??_main,w
   658  02DA  04E8               	iorwf	main@a,f
   659  02DB  0860               	movf	??_main+1,w
   660  02DC  04E9               	iorwf	main@a+1,f
   661  02DD                     l1418:
   662                           
   663                           ;newmain.c: 35:     v=a*4.88*6.4/1000 ;
   664  02DD  0868               	movf	main@a,w
   665  02DE  00F0               	movwf	___xxtofl@val
   666  02DF  0869               	movf	main@a+1,w
   667  02E0  00F1               	movwf	___xxtofl@val+1
   668  02E1  01F2               	clrf	___xxtofl@val+2
   669  02E2  01F3               	clrf	___xxtofl@val+3
   670  02E3  3000               	movlw	0
   671  02E4  3183  2346  3182   	fcall	___xxtofl
   672  02E7  0873               	movf	?___xxtofl+3,w
   673  02E8  0020               	movlb	0	; select bank0
   674  02E9  00A7               	movwf	___flmul@a+3
   675  02EA  0872               	movf	?___xxtofl+2,w
   676  02EB  00A6               	movwf	___flmul@a+2
   677  02EC  0871               	movf	?___xxtofl+1,w
   678  02ED  00A5               	movwf	___flmul@a+1
   679  02EE  0870               	movf	?___xxtofl,w
   680  02EF  00A4               	movwf	___flmul@a
   681  02F0  3040               	movlw	64
   682  02F1  00A3               	movwf	___flmul@b+3
   683  02F2  309C               	movlw	156
   684  02F3  00A2               	movwf	___flmul@b+2
   685  02F4  3028               	movlw	40
   686  02F5  00A1               	movwf	___flmul@b+1
   687  02F6  30F6               	movlw	246
   688  02F7  00A0               	movwf	___flmul@b
   689  02F8  3185  25A6  3182   	fcall	___flmul
   690  02FB  0020               	movlb	0	; select bank0
   691  02FC  0823               	movf	?___flmul+3,w
   692  02FD  00E5               	movwf	_main$716+3
   693  02FE  0822               	movf	?___flmul+2,w
   694  02FF  00E4               	movwf	_main$716+2
   695  0300  0821               	movf	?___flmul+1,w
   696  0301  00E3               	movwf	_main$716+1
   697  0302  0820               	movf	?___flmul,w
   698  0303  00E2               	movwf	_main$716
   699  0304                     l1420:
   700                           
   701                           ;newmain.c: 35:     v=a*4.88*6.4/1000 ;
   702  0304  0865               	movf	_main$716+3,w
   703  0305  00A7               	movwf	___flmul@a+3
   704  0306  0864               	movf	_main$716+2,w
   705  0307  00A6               	movwf	___flmul@a+2
   706  0308  0863               	movf	_main$716+1,w
   707  0309  00A5               	movwf	___flmul@a+1
   708  030A  0862               	movf	_main$716,w
   709  030B  00A4               	movwf	___flmul@a
   710  030C  3040               	movlw	64
   711  030D  00A3               	movwf	___flmul@b+3
   712  030E  30CC               	movlw	204
   713  030F  00A2               	movwf	___flmul@b+2
   714  0310  30CC               	movlw	204
   715  0311  00A1               	movwf	___flmul@b+1
   716  0312  30CD               	movlw	205
   717  0313  00A0               	movwf	___flmul@b
   718  0314  3185  25A6  3182   	fcall	___flmul
   719  0317  0020               	movlb	0	; select bank0
   720  0318  0823               	movf	?___flmul+3,w
   721  0319  00C1               	movwf	___fldiv@b+3
   722  031A  0822               	movf	?___flmul+2,w
   723  031B  00C0               	movwf	___fldiv@b+2
   724  031C  0821               	movf	?___flmul+1,w
   725  031D  00BF               	movwf	___fldiv@b+1
   726  031E  0820               	movf	?___flmul,w
   727  031F  00BE               	movwf	___fldiv@b
   728  0320  3044               	movlw	68
   729  0321  00BD               	movwf	___fldiv@a+3
   730  0322  307A               	movlw	122
   731  0323  00BC               	movwf	___fldiv@a+2
   732  0324  3000               	movlw	0
   733  0325  00BB               	movwf	___fldiv@a+1
   734  0326  3000               	movlw	0
   735  0327  00BA               	movwf	___fldiv@a
   736  0328  3183  23F2  3182   	fcall	___fldiv
   737  032B  0020               	movlb	0	; select bank0
   738  032C  083D               	movf	?___fldiv+3,w
   739  032D  00D7               	movwf	___fltol@f1+3
   740  032E  083C               	movf	?___fldiv+2,w
   741  032F  00D6               	movwf	___fltol@f1+2
   742  0330  083B               	movf	?___fldiv+1,w
   743  0331  00D5               	movwf	___fltol@f1+1
   744  0332  083A               	movf	?___fldiv,w
   745  0333  00D4               	movwf	___fltol@f1
   746  0334  3182  2249  3182   	fcall	___fltol
   747  0337  0020               	movlb	0	; select bank0
   748  0338  0855               	movf	?___fltol+1,w
   749  0339  00E7               	movwf	main@v+1
   750  033A  0854               	movf	?___fltol,w
   751  033B  00E6               	movwf	main@v
   752                           
   753                           ;newmain.c: 38:     DACCON0=0xE0;
   754  033C  30E0               	movlw	224
   755  033D  0022               	movlb	2	; select bank2
   756  033E  0098               	movwf	24	;volatile
   757                           
   758                           ;newmain.c: 39:     DACCON1=v;
   759  033F  0020               	movlb	0	; select bank0
   760  0340  0866               	movf	main@v,w
   761  0341  0022               	movlb	2	; select bank2
   762  0342  0099               	movwf	25	;volatile
   763  0343  2AC3               	goto	l1414
   764  0344  3180  2802         	ljmp	start
   765  0346                     __end_of_main:
   766                           
   767                           	psect	text1
   768  0346                     __ptext1:	
   769 ;; *************** function ___xxtofl *****************
   770 ;; Defined at:
   771 ;;		line 10 in file "C:\Program Files\Microchip\xc8\v2.20\pic\sources\c99\common\xxtofl.c"
   772 ;; Parameters:    Size  Location     Type
   773 ;;  sign            1    wreg     unsigned char 
   774 ;;  val             4    0[COMMON] long 
   775 ;; Auto vars:     Size  Location     Type
   776 ;;  sign            1    8[COMMON] unsigned char 
   777 ;;  arg             4   10[COMMON] unsigned long 
   778 ;;  exp             1    9[COMMON] unsigned char 
   779 ;; Return value:  Size  Location     Type
   780 ;;                  4    0[COMMON] unsigned char 
   781 ;; Registers used:
   782 ;;		wreg, status,2, status,0
   783 ;; Tracked objects:
   784 ;;		On entry : 0/0
   785 ;;		On exit  : 0/0
   786 ;;		Unchanged: 0/0
   787 ;; Data sizes:     COMMON   BANK0   BANK1   BANK2   BANK3   BANK4   BANK5   BANK6
   788 ;;      Params:         4       0       0       0       0       0       0       0
   789 ;;      Locals:         6       0       0       0       0       0       0       0
   790 ;;      Temps:          4       0       0       0       0       0       0       0
   791 ;;      Totals:        14       0       0       0       0       0       0       0
   792 ;;Total ram usage:       14 bytes
   793 ;; Hardware stack levels used:    1
   794 ;; This function calls:
   795 ;;		Nothing
   796 ;; This function is called by:
   797 ;;		_main
   798 ;; This function uses a non-reentrant model
   799 ;;
   800                           
   801                           
   802                           ;psect for function ___xxtofl
   803  0346                     ___xxtofl:
   804                           
   805                           ;incstack = 0
   806                           ; Regs used in ___xxtofl: [wreg+status,2+status,0]
   807                           ;___xxtofl@sign stored from wreg
   808  0346  00F8               	movwf	___xxtofl@sign
   809  0347                     l1364:
   810  0347  0878               	movf	___xxtofl@sign,w
   811  0348  1903               	btfsc	3,2
   812  0349  2B4B               	goto	u1531
   813  034A  2B4C               	goto	u1530
   814  034B                     u1531:
   815  034B  2B60               	goto	l1370
   816  034C                     u1530:
   817  034C                     l1366:
   818  034C  1FF3               	btfss	___xxtofl@val+3,7
   819  034D  2B4F               	goto	u1541
   820  034E  2B50               	goto	u1540
   821  034F                     u1541:
   822  034F  2B60               	goto	l1370
   823  0350                     u1540:
   824  0350                     l1368:
   825  0350  0970               	comf	___xxtofl@val,w
   826  0351  00FA               	movwf	___xxtofl@arg
   827  0352  0971               	comf	___xxtofl@val+1,w
   828  0353  00FB               	movwf	___xxtofl@arg+1
   829  0354  0972               	comf	___xxtofl@val+2,w
   830  0355  00FC               	movwf	___xxtofl@arg+2
   831  0356  0973               	comf	___xxtofl@val+3,w
   832  0357  00FD               	movwf	___xxtofl@arg+3
   833  0358  0AFA               	incf	___xxtofl@arg,f
   834  0359  1903               	skipnz
   835  035A  0AFB               	incf	___xxtofl@arg+1,f
   836  035B  1903               	skipnz
   837  035C  0AFC               	incf	___xxtofl@arg+2,f
   838  035D  1903               	skipnz
   839  035E  0AFD               	incf	___xxtofl@arg+3,f
   840  035F  2B68               	goto	l621
   841  0360                     l1370:
   842  0360  0873               	movf	___xxtofl@val+3,w
   843  0361  00FD               	movwf	___xxtofl@arg+3
   844  0362  0872               	movf	___xxtofl@val+2,w
   845  0363  00FC               	movwf	___xxtofl@arg+2
   846  0364  0871               	movf	___xxtofl@val+1,w
   847  0365  00FB               	movwf	___xxtofl@arg+1
   848  0366  0870               	movf	___xxtofl@val,w
   849  0367  00FA               	movwf	___xxtofl@arg
   850  0368                     l621:
   851  0368  0873               	movf	___xxtofl@val+3,w
   852  0369  0472               	iorwf	___xxtofl@val+2,w
   853  036A  0471               	iorwf	___xxtofl@val+1,w
   854  036B  0470               	iorwf	___xxtofl@val,w
   855  036C  1D03               	skipz
   856  036D  2B6F               	goto	u1551
   857  036E  2B70               	goto	u1550
   858  036F                     u1551:
   859  036F  2B79               	goto	l1376
   860  0370                     u1550:
   861  0370                     l1372:
   862  0370  3000               	movlw	0
   863  0371  00F3               	movwf	?___xxtofl+3
   864  0372  3000               	movlw	0
   865  0373  00F2               	movwf	?___xxtofl+2
   866  0374  3000               	movlw	0
   867  0375  00F1               	movwf	?___xxtofl+1
   868  0376  3000               	movlw	0
   869  0377  00F0               	movwf	?___xxtofl
   870  0378  2BF1               	goto	l623
   871  0379                     l1376:
   872  0379  3096               	movlw	150
   873  037A  00F4               	movwf	??___xxtofl
   874  037B  0874               	movf	??___xxtofl,w
   875  037C  00F9               	movwf	___xxtofl@exp
   876  037D  2B89               	goto	l1380
   877  037E                     l1378:
   878  037E  3001               	movlw	1
   879  037F  00F4               	movwf	??___xxtofl
   880  0380  0874               	movf	??___xxtofl,w
   881  0381  07F9               	addwf	___xxtofl@exp,f
   882  0382  3001               	movlw	1
   883  0383                     u1565:
   884  0383  36FD               	lsrf	___xxtofl@arg+3,f
   885  0384  0CFC               	rrf	___xxtofl@arg+2,f
   886  0385  0CFB               	rrf	___xxtofl@arg+1,f
   887  0386  0CFA               	rrf	___xxtofl@arg,f
   888  0387  0B89               	decfsz	9,f
   889  0388  2B83               	goto	u1565
   890  0389                     l1380:
   891  0389  30FE               	movlw	254
   892  038A  057D               	andwf	___xxtofl@arg+3,w
   893  038B  1D03               	btfss	3,2
   894  038C  2B8E               	goto	u1571
   895  038D  2B8F               	goto	u1570
   896  038E                     u1571:
   897  038E  2B7E               	goto	l1378
   898  038F                     u1570:
   899  038F  2BA3               	goto	l627
   900  0390                     l1382:
   901  0390  3001               	movlw	1
   902  0391  00F4               	movwf	??___xxtofl
   903  0392  0874               	movf	??___xxtofl,w
   904  0393  07F9               	addwf	___xxtofl@exp,f
   905  0394                     l1384:
   906  0394  3001               	movlw	1
   907  0395  07FA               	addwf	___xxtofl@arg,f
   908  0396  3000               	movlw	0
   909  0397  3DFB               	addwfc	___xxtofl@arg+1,f
   910  0398  3000               	movlw	0
   911  0399  3DFC               	addwfc	___xxtofl@arg+2,f
   912  039A  3000               	movlw	0
   913  039B  3DFD               	addwfc	___xxtofl@arg+3,f
   914  039C                     l1386:
   915  039C  3001               	movlw	1
   916  039D                     u1585:
   917  039D  36FD               	lsrf	___xxtofl@arg+3,f
   918  039E  0CFC               	rrf	___xxtofl@arg+2,f
   919  039F  0CFB               	rrf	___xxtofl@arg+1,f
   920  03A0  0CFA               	rrf	___xxtofl@arg,f
   921  03A1  0B89               	decfsz	9,f
   922  03A2  2B9D               	goto	u1585
   923  03A3                     l627:
   924  03A3  30FF               	movlw	255
   925  03A4  057D               	andwf	___xxtofl@arg+3,w
   926  03A5  1D03               	btfss	3,2
   927  03A6  2BA8               	goto	u1591
   928  03A7  2BA9               	goto	u1590
   929  03A8                     u1591:
   930  03A8  2B90               	goto	l1382
   931  03A9                     u1590:
   932  03A9  2BB3               	goto	l1390
   933  03AA                     l1388:
   934  03AA  3001               	movlw	1
   935  03AB  02F9               	subwf	___xxtofl@exp,f
   936  03AC  3001               	movlw	1
   937  03AD                     u1605:
   938  03AD  35FA               	lslf	___xxtofl@arg,f
   939  03AE  0DFB               	rlf	___xxtofl@arg+1,f
   940  03AF  0DFC               	rlf	___xxtofl@arg+2,f
   941  03B0  0DFD               	rlf	___xxtofl@arg+3,f
   942  03B1  0B89               	decfsz	9,f
   943  03B2  2BAD               	goto	u1605
   944  03B3                     l1390:
   945  03B3  1BFC               	btfsc	___xxtofl@arg+2,7
   946  03B4  2BB6               	goto	u1611
   947  03B5  2BB7               	goto	u1610
   948  03B6                     u1611:
   949  03B6  2BBD               	goto	l634
   950  03B7                     u1610:
   951  03B7                     l1392:
   952  03B7  3002               	movlw	2
   953  03B8  0279               	subwf	___xxtofl@exp,w
   954  03B9  1803               	skipnc
   955  03BA  2BBC               	goto	u1621
   956  03BB  2BBD               	goto	u1620
   957  03BC                     u1621:
   958  03BC  2BAA               	goto	l1388
   959  03BD                     u1620:
   960  03BD                     l634:
   961  03BD  1879               	btfsc	___xxtofl@exp,0
   962  03BE  2BC0               	goto	u1631
   963  03BF  2BC1               	goto	u1630
   964  03C0                     u1631:
   965  03C0  2BC9               	goto	l635
   966  03C1                     u1630:
   967  03C1                     l1394:
   968  03C1  30FF               	movlw	255
   969  03C2  05FA               	andwf	___xxtofl@arg,f
   970  03C3  30FF               	movlw	255
   971  03C4  05FB               	andwf	___xxtofl@arg+1,f
   972  03C5  307F               	movlw	127
   973  03C6  05FC               	andwf	___xxtofl@arg+2,f
   974  03C7  30FF               	movlw	255
   975  03C8  05FD               	andwf	___xxtofl@arg+3,f
   976  03C9                     l635:
   977  03C9  1003               	clrc
   978  03CA  0CF9               	rrf	___xxtofl@exp,f
   979  03CB                     l1396:
   980  03CB  0879               	movf	___xxtofl@exp,w
   981  03CC  00F4               	movwf	??___xxtofl
   982  03CD  01F5               	clrf	??___xxtofl+1
   983  03CE  01F6               	clrf	??___xxtofl+2
   984  03CF  01F7               	clrf	??___xxtofl+3
   985  03D0  3018               	movlw	24
   986  03D1                     u1645:
   987  03D1  35F4               	lslf	??___xxtofl,f
   988  03D2  0DF5               	rlf	??___xxtofl+1,f
   989  03D3  0DF6               	rlf	??___xxtofl+2,f
   990  03D4  0DF7               	rlf	??___xxtofl+3,f
   991  03D5                     u1640:
   992  03D5  0B89               	decfsz	9,f
   993  03D6  2BD1               	goto	u1645
   994  03D7  0874               	movf	??___xxtofl,w
   995  03D8  04FA               	iorwf	___xxtofl@arg,f
   996  03D9  0875               	movf	??___xxtofl+1,w
   997  03DA  04FB               	iorwf	___xxtofl@arg+1,f
   998  03DB  0876               	movf	??___xxtofl+2,w
   999  03DC  04FC               	iorwf	___xxtofl@arg+2,f
  1000  03DD  0877               	movf	??___xxtofl+3,w
  1001  03DE  04FD               	iorwf	___xxtofl@arg+3,f
  1002  03DF                     l1398:
  1003  03DF  0878               	movf	___xxtofl@sign,w
  1004  03E0  1903               	btfsc	3,2
  1005  03E1  2BE3               	goto	u1651
  1006  03E2  2BE4               	goto	u1650
  1007  03E3                     u1651:
  1008  03E3  2BE9               	goto	l1404
  1009  03E4                     u1650:
  1010  03E4                     l1400:
  1011  03E4  1FF3               	btfss	___xxtofl@val+3,7
  1012  03E5  2BE7               	goto	u1661
  1013  03E6  2BE8               	goto	u1660
  1014  03E7                     u1661:
  1015  03E7  2BE9               	goto	l1404
  1016  03E8                     u1660:
  1017  03E8                     l1402:
  1018  03E8  17FD               	bsf	___xxtofl@arg+3,7
  1019  03E9                     l1404:
  1020  03E9  087D               	movf	___xxtofl@arg+3,w
  1021  03EA  00F3               	movwf	?___xxtofl+3
  1022  03EB  087C               	movf	___xxtofl@arg+2,w
  1023  03EC  00F2               	movwf	?___xxtofl+2
  1024  03ED  087B               	movf	___xxtofl@arg+1,w
  1025  03EE  00F1               	movwf	?___xxtofl+1
  1026  03EF  087A               	movf	___xxtofl@arg,w
  1027  03F0  00F0               	movwf	?___xxtofl
  1028  03F1                     l623:
  1029  03F1  0008               	return
  1030  03F2                     __end_of___xxtofl:
  1031                           
  1032                           	psect	text2
  1033  0249                     __ptext2:	
  1034 ;; *************** function ___fltol *****************
  1035 ;; Defined at:
  1036 ;;		line 43 in file "C:\Program Files\Microchip\xc8\v2.20\pic\sources\c99\common\fltol.c"
  1037 ;; Parameters:    Size  Location     Type
  1038 ;;  f1              4   52[BANK0 ] unsigned char 
  1039 ;; Auto vars:     Size  Location     Type
  1040 ;;  exp1            1   62[BANK0 ] unsigned char 
  1041 ;;  sign1           1   61[BANK0 ] unsigned char 
  1042 ;; Return value:  Size  Location     Type
  1043 ;;                  4   52[BANK0 ] long 
  1044 ;; Registers used:
  1045 ;;		wreg, status,2, status,0
  1046 ;; Tracked objects:
  1047 ;;		On entry : 0/0
  1048 ;;		On exit  : 0/0
  1049 ;;		Unchanged: 0/0
  1050 ;; Data sizes:     COMMON   BANK0   BANK1   BANK2   BANK3   BANK4   BANK5   BANK6
  1051 ;;      Params:         0       4       0       0       0       0       0       0
  1052 ;;      Locals:         0       2       0       0       0       0       0       0
  1053 ;;      Temps:          0       5       0       0       0       0       0       0
  1054 ;;      Totals:         0      11       0       0       0       0       0       0
  1055 ;;Total ram usage:       11 bytes
  1056 ;; Hardware stack levels used:    1
  1057 ;; This function calls:
  1058 ;;		Nothing
  1059 ;; This function is called by:
  1060 ;;		_main
  1061 ;; This function uses a non-reentrant model
  1062 ;;
  1063                           
  1064                           
  1065                           ;psect for function ___fltol
  1066  0249                     ___fltol:
  1067  0249                     l1048:	
  1068                           ;incstack = 0
  1069                           ; Regs used in ___fltol: [wreg+status,2+status,0]
  1070                           
  1071  0249  1003               	clrc
  1072  024A  0020               	movlb	0	; select bank0
  1073  024B  0D56               	rlf	___fltol@f1+2,w
  1074  024C  0D57               	rlf	___fltol@f1+3,w
  1075  024D  00D8               	movwf	??___fltol
  1076  024E  0858               	movf	??___fltol,w
  1077  024F  00DE               	movwf	___fltol@exp1
  1078  0250  085E               	movf	___fltol@exp1,w
  1079  0251  1D03               	btfss	3,2
  1080  0252  2A54               	goto	u881
  1081  0253  2A55               	goto	u880
  1082  0254                     u881:
  1083  0254  2A5E               	goto	l1054
  1084  0255                     u880:
  1085  0255                     l1050:
  1086  0255  3000               	movlw	0
  1087  0256  00D7               	movwf	?___fltol+3
  1088  0257  3000               	movlw	0
  1089  0258  00D6               	movwf	?___fltol+2
  1090  0259  3000               	movlw	0
  1091  025A  00D5               	movwf	?___fltol+1
  1092  025B  3000               	movlw	0
  1093  025C  00D4               	movwf	?___fltol
  1094  025D  2ABD               	goto	l374
  1095  025E                     l1054:
  1096  025E  0854               	movf	___fltol@f1,w
  1097  025F  00D8               	movwf	??___fltol
  1098  0260  0855               	movf	___fltol@f1+1,w
  1099  0261  00D9               	movwf	??___fltol+1
  1100  0262  0856               	movf	___fltol@f1+2,w
  1101  0263  00DA               	movwf	??___fltol+2
  1102  0264  0857               	movf	___fltol@f1+3,w
  1103  0265  00DB               	movwf	??___fltol+3
  1104  0266  301F               	movlw	31
  1105  0267                     u895:
  1106  0267  36DB               	lsrf	??___fltol+3,f
  1107  0268  0CDA               	rrf	??___fltol+2,f
  1108  0269  0CD9               	rrf	??___fltol+1,f
  1109  026A  0CD8               	rrf	??___fltol,f
  1110  026B                     u890:
  1111  026B  0B89               	decfsz	9,f
  1112  026C  2A67               	goto	u895
  1113  026D  0858               	movf	??___fltol,w
  1114  026E  00DC               	movwf	??___fltol+4
  1115  026F  085C               	movf	??___fltol+4,w
  1116  0270  00DD               	movwf	___fltol@sign1
  1117  0271                     l1056:
  1118  0271  17D6               	bsf	___fltol@f1+2,7
  1119  0272                     l1058:
  1120  0272  30FF               	movlw	255
  1121  0273  05D4               	andwf	___fltol@f1,f
  1122  0274  30FF               	movlw	255
  1123  0275  05D5               	andwf	___fltol@f1+1,f
  1124  0276  30FF               	movlw	255
  1125  0277  05D6               	andwf	___fltol@f1+2,f
  1126  0278  3000               	movlw	0
  1127  0279  05D7               	andwf	___fltol@f1+3,f
  1128  027A                     l1060:
  1129  027A  3096               	movlw	150
  1130  027B  02DE               	subwf	___fltol@exp1,f
  1131  027C                     l1062:
  1132  027C  1FDE               	btfss	___fltol@exp1,7
  1133  027D  2A7F               	goto	u901
  1134  027E  2A80               	goto	u900
  1135  027F                     u901:
  1136  027F  2A98               	goto	l1072
  1137  0280                     u900:
  1138  0280                     l1064:
  1139  0280  085E               	movf	___fltol@exp1,w
  1140  0281  3A80               	xorlw	128
  1141  0282  3E97               	addlw	151
  1142  0283  1803               	skipnc
  1143  0284  2A86               	goto	u911
  1144  0285  2A87               	goto	u910
  1145  0286                     u911:
  1146  0286  2A88               	goto	l1070
  1147  0287                     u910:
  1148  0287  2A55               	goto	l1050
  1149  0288                     l1070:
  1150  0288  3001               	movlw	1
  1151  0289                     u925:
  1152  0289  36D7               	lsrf	___fltol@f1+3,f
  1153  028A  0CD6               	rrf	___fltol@f1+2,f
  1154  028B  0CD5               	rrf	___fltol@f1+1,f
  1155  028C  0CD4               	rrf	___fltol@f1,f
  1156  028D  0B89               	decfsz	9,f
  1157  028E  2A89               	goto	u925
  1158  028F  3001               	movlw	1
  1159  0290  00D8               	movwf	??___fltol
  1160  0291  0858               	movf	??___fltol,w
  1161  0292  07DE               	addwf	___fltol@exp1,f
  1162  0293  1D03               	btfss	3,2
  1163  0294  2A96               	goto	u931
  1164  0295  2A97               	goto	u930
  1165  0296                     u931:
  1166  0296  2A88               	goto	l1070
  1167  0297                     u930:
  1168  0297  2AAD               	goto	l1080
  1169  0298                     l1072:
  1170  0298  3020               	movlw	32
  1171  0299  025E               	subwf	___fltol@exp1,w
  1172  029A  1C03               	skipc
  1173  029B  2A9D               	goto	u941
  1174  029C  2A9E               	goto	u940
  1175  029D                     u941:
  1176  029D  2AA8               	goto	l381
  1177  029E                     u940:
  1178  029E  2A55               	goto	l1050
  1179  029F                     l1078:
  1180  029F  3001               	movlw	1
  1181  02A0                     u955:
  1182  02A0  35D4               	lslf	___fltol@f1,f
  1183  02A1  0DD5               	rlf	___fltol@f1+1,f
  1184  02A2  0DD6               	rlf	___fltol@f1+2,f
  1185  02A3  0DD7               	rlf	___fltol@f1+3,f
  1186  02A4  0B89               	decfsz	9,f
  1187  02A5  2AA0               	goto	u955
  1188  02A6  3001               	movlw	1
  1189  02A7  02DE               	subwf	___fltol@exp1,f
  1190  02A8                     l381:
  1191  02A8  085E               	movf	___fltol@exp1,w
  1192  02A9  1D03               	btfss	3,2
  1193  02AA  2AAC               	goto	u961
  1194  02AB  2AAD               	goto	u960
  1195  02AC                     u961:
  1196  02AC  2A9F               	goto	l1078
  1197  02AD                     u960:
  1198  02AD                     l1080:
  1199  02AD  085D               	movf	___fltol@sign1,w
  1200  02AE  1903               	btfsc	3,2
  1201  02AF  2AB1               	goto	u971
  1202  02B0  2AB2               	goto	u970
  1203  02B1                     u971:
  1204  02B1  2ABD               	goto	l384
  1205  02B2                     u970:
  1206  02B2                     l1082:
  1207  02B2  09D4               	comf	___fltol@f1,f
  1208  02B3  09D5               	comf	___fltol@f1+1,f
  1209  02B4  09D6               	comf	___fltol@f1+2,f
  1210  02B5  09D7               	comf	___fltol@f1+3,f
  1211  02B6  0AD4               	incf	___fltol@f1,f
  1212  02B7  1903               	skipnz
  1213  02B8  0AD5               	incf	___fltol@f1+1,f
  1214  02B9  1903               	skipnz
  1215  02BA  0AD6               	incf	___fltol@f1+2,f
  1216  02BB  1903               	skipnz
  1217  02BC  0AD7               	incf	___fltol@f1+3,f
  1218  02BD                     l384:
  1219  02BD                     l374:
  1220  02BD  0008               	return
  1221  02BE                     __end_of___fltol:
  1222                           
  1223                           	psect	text3
  1224  05A6                     __ptext3:	
  1225 ;; *************** function ___flmul *****************
  1226 ;; Defined at:
  1227 ;;		line 8 in file "C:\Program Files\Microchip\xc8\v2.20\pic\sources\c99\common\sprcmul.c"
  1228 ;; Parameters:    Size  Location     Type
  1229 ;;  b               4    0[BANK0 ] long 
  1230 ;;  a               4    4[BANK0 ] long 
  1231 ;; Auto vars:     Size  Location     Type
  1232 ;;  prod            4   20[BANK0 ] struct .
  1233 ;;  grs             4   14[BANK0 ] unsigned long 
  1234 ;;  temp            2   24[BANK0 ] struct .
  1235 ;;  bexp            1   19[BANK0 ] unsigned char 
  1236 ;;  aexp            1   18[BANK0 ] unsigned char 
  1237 ;;  sign            1   13[BANK0 ] unsigned char 
  1238 ;; Return value:  Size  Location     Type
  1239 ;;                  4    0[BANK0 ] unsigned char 
  1240 ;; Registers used:
  1241 ;;		wreg, status,2, status,0, pclath, cstack
  1242 ;; Tracked objects:
  1243 ;;		On entry : 0/0
  1244 ;;		On exit  : 0/0
  1245 ;;		Unchanged: 0/0
  1246 ;; Data sizes:     COMMON   BANK0   BANK1   BANK2   BANK3   BANK4   BANK5   BANK6
  1247 ;;      Params:         0       8       0       0       0       0       0       0
  1248 ;;      Locals:         0      13       0       0       0       0       0       0
  1249 ;;      Temps:          0       5       0       0       0       0       0       0
  1250 ;;      Totals:         0      26       0       0       0       0       0       0
  1251 ;;Total ram usage:       26 bytes
  1252 ;; Hardware stack levels used:    1
  1253 ;; Hardware stack levels required when called:    1
  1254 ;; This function calls:
  1255 ;;		__Umul8_16
  1256 ;; This function is called by:
  1257 ;;		_main
  1258 ;; This function uses a non-reentrant model
  1259 ;;
  1260                           
  1261                           
  1262                           ;psect for function ___flmul
  1263  05A6                     ___flmul:
  1264  05A6                     l1224:	
  1265                           ;incstack = 0
  1266                           ; Regs used in ___flmul: [wreg+status,2+status,0+pclath+cstack]
  1267                           
  1268  05A6  0020               	movlb	0	; select bank0
  1269  05A7  0823               	movf	___flmul@b+3,w
  1270  05A8  3980               	andlw	128
  1271  05A9  00A8               	movwf	??___flmul
  1272  05AA  0828               	movf	??___flmul,w
  1273  05AB  00AD               	movwf	___flmul@sign
  1274  05AC                     l1226:
  1275  05AC  3523               	lslf	___flmul@b+3,w
  1276  05AD  00A8               	movwf	??___flmul
  1277  05AE  0828               	movf	??___flmul,w
  1278  05AF  00B3               	movwf	___flmul@bexp
  1279  05B0                     l1228:
  1280  05B0  1FA2               	btfss	___flmul@b+2,7
  1281  05B1  2DB3               	goto	u1271
  1282  05B2  2DB4               	goto	u1270
  1283  05B3                     u1271:
  1284  05B3  2DB5               	goto	l1232
  1285  05B4                     u1270:
  1286  05B4                     l1230:
  1287  05B4  1433               	bsf	___flmul@bexp,0
  1288  05B5                     l1232:
  1289  05B5  0833               	movf	___flmul@bexp,w
  1290  05B6  1903               	btfsc	3,2
  1291  05B7  2DB9               	goto	u1281
  1292  05B8  2DBA               	goto	u1280
  1293  05B9                     u1281:
  1294  05B9  2DC9               	goto	l1240
  1295  05BA                     u1280:
  1296  05BA                     l1234:
  1297  05BA  0A33               	incf	___flmul@bexp,w
  1298  05BB  1D03               	btfss	3,2
  1299  05BC  2DBE               	goto	u1291
  1300  05BD  2DBF               	goto	u1290
  1301  05BE                     u1291:
  1302  05BE  2DC7               	goto	l1238
  1303  05BF                     u1290:
  1304  05BF                     l1236:
  1305  05BF  3000               	movlw	0
  1306  05C0  00A3               	movwf	___flmul@b+3
  1307  05C1  3000               	movlw	0
  1308  05C2  00A2               	movwf	___flmul@b+2
  1309  05C3  3000               	movlw	0
  1310  05C4  00A1               	movwf	___flmul@b+1
  1311  05C5  3000               	movlw	0
  1312  05C6  00A0               	movwf	___flmul@b
  1313  05C7                     l1238:
  1314  05C7  17A2               	bsf	___flmul@b+2,7
  1315  05C8  2DD1               	goto	l1242
  1316  05C9                     l1240:
  1317  05C9  3000               	movlw	0
  1318  05CA  00A3               	movwf	___flmul@b+3
  1319  05CB  3000               	movlw	0
  1320  05CC  00A2               	movwf	___flmul@b+2
  1321  05CD  3000               	movlw	0
  1322  05CE  00A1               	movwf	___flmul@b+1
  1323  05CF  3000               	movlw	0
  1324  05D0  00A0               	movwf	___flmul@b
  1325  05D1                     l1242:
  1326  05D1  0827               	movf	___flmul@a+3,w
  1327  05D2  3980               	andlw	128
  1328  05D3  00A8               	movwf	??___flmul
  1329  05D4  0828               	movf	??___flmul,w
  1330  05D5  06AD               	xorwf	___flmul@sign,f
  1331  05D6                     l1244:
  1332  05D6  3527               	lslf	___flmul@a+3,w
  1333  05D7  00A8               	movwf	??___flmul
  1334  05D8  0828               	movf	??___flmul,w
  1335  05D9  00B2               	movwf	___flmul@aexp
  1336  05DA                     l1246:
  1337  05DA  1FA6               	btfss	___flmul@a+2,7
  1338  05DB  2DDD               	goto	u1301
  1339  05DC  2DDE               	goto	u1300
  1340  05DD                     u1301:
  1341  05DD  2DDF               	goto	l1250
  1342  05DE                     u1300:
  1343  05DE                     l1248:
  1344  05DE  1432               	bsf	___flmul@aexp,0
  1345  05DF                     l1250:
  1346  05DF  0832               	movf	___flmul@aexp,w
  1347  05E0  1903               	btfsc	3,2
  1348  05E1  2DE3               	goto	u1311
  1349  05E2  2DE4               	goto	u1310
  1350  05E3                     u1311:
  1351  05E3  2DF3               	goto	l1258
  1352  05E4                     u1310:
  1353  05E4                     l1252:
  1354  05E4  0A32               	incf	___flmul@aexp,w
  1355  05E5  1D03               	btfss	3,2
  1356  05E6  2DE8               	goto	u1321
  1357  05E7  2DE9               	goto	u1320
  1358  05E8                     u1321:
  1359  05E8  2DF1               	goto	l1256
  1360  05E9                     u1320:
  1361  05E9                     l1254:
  1362  05E9  3000               	movlw	0
  1363  05EA  00A7               	movwf	___flmul@a+3
  1364  05EB  3000               	movlw	0
  1365  05EC  00A6               	movwf	___flmul@a+2
  1366  05ED  3000               	movlw	0
  1367  05EE  00A5               	movwf	___flmul@a+1
  1368  05EF  3000               	movlw	0
  1369  05F0  00A4               	movwf	___flmul@a
  1370  05F1                     l1256:
  1371  05F1  17A6               	bsf	___flmul@a+2,7
  1372  05F2  2DFB               	goto	l1260
  1373  05F3                     l1258:
  1374  05F3  3000               	movlw	0
  1375  05F4  00A7               	movwf	___flmul@a+3
  1376  05F5  3000               	movlw	0
  1377  05F6  00A6               	movwf	___flmul@a+2
  1378  05F7  3000               	movlw	0
  1379  05F8  00A5               	movwf	___flmul@a+1
  1380  05F9  3000               	movlw	0
  1381  05FA  00A4               	movwf	___flmul@a
  1382  05FB                     l1260:
  1383  05FB  0832               	movf	___flmul@aexp,w
  1384  05FC  1903               	btfsc	3,2
  1385  05FD  2DFF               	goto	u1331
  1386  05FE  2E00               	goto	u1330
  1387  05FF                     u1331:
  1388  05FF  2E05               	goto	l1264
  1389  0600                     u1330:
  1390  0600                     l1262:
  1391  0600  0833               	movf	___flmul@bexp,w
  1392  0601  1D03               	btfss	3,2
  1393  0602  2E04               	goto	u1341
  1394  0603  2E05               	goto	u1340
  1395  0604                     u1341:
  1396  0604  2E0E               	goto	l1268
  1397  0605                     u1340:
  1398  0605                     l1264:
  1399  0605  3000               	movlw	0
  1400  0606  00A3               	movwf	?___flmul+3
  1401  0607  3000               	movlw	0
  1402  0608  00A2               	movwf	?___flmul+2
  1403  0609  3000               	movlw	0
  1404  060A  00A1               	movwf	?___flmul+1
  1405  060B  3000               	movlw	0
  1406  060C  00A0               	movwf	?___flmul
  1407  060D  2FFC               	goto	l577
  1408  060E                     l1268:
  1409  060E  0820               	movf	___flmul@b,w
  1410  060F  00A8               	movwf	??___flmul
  1411  0610  0828               	movf	??___flmul,w
  1412  0611  00F0               	movwf	__Umul8_16@multiplicand
  1413  0612  0826               	movf	___flmul@a+2,w
  1414  0613  3182  2226  3185   	fcall	__Umul8_16
  1415  0616  0871               	movf	?__Umul8_16+1,w
  1416  0617  0020               	movlb	0	; select bank0
  1417  0618  00B9               	movwf	___flmul@temp+1
  1418  0619  0870               	movf	?__Umul8_16,w
  1419  061A  00B8               	movwf	___flmul@temp
  1420  061B                     l1270:
  1421  061B  0838               	movf	___flmul@temp,w
  1422  061C  00A8               	movwf	??___flmul
  1423  061D  01A9               	clrf	??___flmul+1
  1424  061E  01AA               	clrf	??___flmul+2
  1425  061F  01AB               	clrf	??___flmul+3
  1426  0620  082B               	movf	??___flmul+3,w
  1427  0621  00B1               	movwf	___flmul@grs+3
  1428  0622  082A               	movf	??___flmul+2,w
  1429  0623  00B0               	movwf	___flmul@grs+2
  1430  0624  0829               	movf	??___flmul+1,w
  1431  0625  00AF               	movwf	___flmul@grs+1
  1432  0626  0828               	movf	??___flmul,w
  1433  0627  00AE               	movwf	___flmul@grs
  1434  0628                     l1272:
  1435  0628  0839               	movf	___flmul@temp+1,w
  1436  0629  00A8               	movwf	??___flmul
  1437  062A  01A9               	clrf	??___flmul+1
  1438  062B  01AA               	clrf	??___flmul+2
  1439  062C  01AB               	clrf	??___flmul+3
  1440  062D  082B               	movf	??___flmul+3,w
  1441  062E  00B7               	movwf	___flmul@prod+3
  1442  062F  082A               	movf	??___flmul+2,w
  1443  0630  00B6               	movwf	___flmul@prod+2
  1444  0631  0829               	movf	??___flmul+1,w
  1445  0632  00B5               	movwf	___flmul@prod+1
  1446  0633  0828               	movf	??___flmul,w
  1447  0634  00B4               	movwf	___flmul@prod
  1448  0635  0821               	movf	___flmul@b+1,w
  1449  0636  00A8               	movwf	??___flmul
  1450  0637  0828               	movf	??___flmul,w
  1451  0638  00F0               	movwf	__Umul8_16@multiplicand
  1452  0639  0825               	movf	___flmul@a+1,w
  1453  063A  3182  2226  3185   	fcall	__Umul8_16
  1454  063D  0871               	movf	?__Umul8_16+1,w
  1455  063E  0020               	movlb	0	; select bank0
  1456  063F  00B9               	movwf	___flmul@temp+1
  1457  0640  0870               	movf	?__Umul8_16,w
  1458  0641  00B8               	movwf	___flmul@temp
  1459  0642                     l1274:
  1460  0642  0838               	movf	___flmul@temp,w
  1461  0643  00A8               	movwf	??___flmul
  1462  0644  01A9               	clrf	??___flmul+1
  1463  0645  01AA               	clrf	??___flmul+2
  1464  0646  01AB               	clrf	??___flmul+3
  1465  0647  0828               	movf	??___flmul,w
  1466  0648  07AE               	addwf	___flmul@grs,f
  1467  0649  0829               	movf	??___flmul+1,w
  1468  064A  3DAF               	addwfc	___flmul@grs+1,f
  1469  064B  082A               	movf	??___flmul+2,w
  1470  064C  3DB0               	addwfc	___flmul@grs+2,f
  1471  064D  082B               	movf	??___flmul+3,w
  1472  064E  3DB1               	addwfc	___flmul@grs+3,f
  1473  064F                     l1276:
  1474  064F  0839               	movf	___flmul@temp+1,w
  1475  0650  00A8               	movwf	??___flmul
  1476  0651  01A9               	clrf	??___flmul+1
  1477  0652  01AA               	clrf	??___flmul+2
  1478  0653  01AB               	clrf	??___flmul+3
  1479  0654  0828               	movf	??___flmul,w
  1480  0655  07B4               	addwf	___flmul@prod,f
  1481  0656  0829               	movf	??___flmul+1,w
  1482  0657  3DB5               	addwfc	___flmul@prod+1,f
  1483  0658  082A               	movf	??___flmul+2,w
  1484  0659  3DB6               	addwfc	___flmul@prod+2,f
  1485  065A  082B               	movf	??___flmul+3,w
  1486  065B  3DB7               	addwfc	___flmul@prod+3,f
  1487  065C  0822               	movf	___flmul@b+2,w
  1488  065D  00A8               	movwf	??___flmul
  1489  065E  0828               	movf	??___flmul,w
  1490  065F  00F0               	movwf	__Umul8_16@multiplicand
  1491  0660  0824               	movf	___flmul@a,w
  1492  0661  3182  2226  3185   	fcall	__Umul8_16
  1493  0664  0871               	movf	?__Umul8_16+1,w
  1494  0665  0020               	movlb	0	; select bank0
  1495  0666  00B9               	movwf	___flmul@temp+1
  1496  0667  0870               	movf	?__Umul8_16,w
  1497  0668  00B8               	movwf	___flmul@temp
  1498  0669                     l1278:
  1499  0669  0838               	movf	___flmul@temp,w
  1500  066A  00A8               	movwf	??___flmul
  1501  066B  01A9               	clrf	??___flmul+1
  1502  066C  01AA               	clrf	??___flmul+2
  1503  066D  01AB               	clrf	??___flmul+3
  1504  066E  0828               	movf	??___flmul,w
  1505  066F  07AE               	addwf	___flmul@grs,f
  1506  0670  0829               	movf	??___flmul+1,w
  1507  0671  3DAF               	addwfc	___flmul@grs+1,f
  1508  0672  082A               	movf	??___flmul+2,w
  1509  0673  3DB0               	addwfc	___flmul@grs+2,f
  1510  0674  082B               	movf	??___flmul+3,w
  1511  0675  3DB1               	addwfc	___flmul@grs+3,f
  1512  0676                     l1280:
  1513  0676  0839               	movf	___flmul@temp+1,w
  1514  0677  00A8               	movwf	??___flmul
  1515  0678  01A9               	clrf	??___flmul+1
  1516  0679  01AA               	clrf	??___flmul+2
  1517  067A  01AB               	clrf	??___flmul+3
  1518  067B  0828               	movf	??___flmul,w
  1519  067C  07B4               	addwf	___flmul@prod,f
  1520  067D  0829               	movf	??___flmul+1,w
  1521  067E  3DB5               	addwfc	___flmul@prod+1,f
  1522  067F  082A               	movf	??___flmul+2,w
  1523  0680  3DB6               	addwfc	___flmul@prod+2,f
  1524  0681  082B               	movf	??___flmul+3,w
  1525  0682  3DB7               	addwfc	___flmul@prod+3,f
  1526  0683                     l1282:
  1527  0683  3008               	movlw	8
  1528  0684                     u1355:
  1529  0684  35AE               	lslf	___flmul@grs,f
  1530  0685  0DAF               	rlf	___flmul@grs+1,f
  1531  0686  0DB0               	rlf	___flmul@grs+2,f
  1532  0687  0DB1               	rlf	___flmul@grs+3,f
  1533  0688  0B89               	decfsz	9,f
  1534  0689  2E84               	goto	u1355
  1535  068A                     l1284:
  1536  068A  0821               	movf	___flmul@b+1,w
  1537  068B  00A8               	movwf	??___flmul
  1538  068C  0828               	movf	??___flmul,w
  1539  068D  00F0               	movwf	__Umul8_16@multiplicand
  1540  068E  0824               	movf	___flmul@a,w
  1541  068F  3182  2226  3185   	fcall	__Umul8_16
  1542  0692  0871               	movf	?__Umul8_16+1,w
  1543  0693  0020               	movlb	0	; select bank0
  1544  0694  00B9               	movwf	___flmul@temp+1
  1545  0695  0870               	movf	?__Umul8_16,w
  1546  0696  00B8               	movwf	___flmul@temp
  1547  0697                     l1286:
  1548  0697  0838               	movf	___flmul@temp,w
  1549  0698  07AE               	addwf	___flmul@grs,f
  1550  0699  0839               	movf	___flmul@temp+1,w
  1551  069A  3DAF               	addwfc	___flmul@grs+1,f
  1552  069B  3000               	movlw	0
  1553  069C  3DB0               	addwfc	___flmul@grs+2,f
  1554  069D  3DB1               	addwfc	___flmul@grs+3,f
  1555  069E                     l1288:
  1556  069E  0820               	movf	___flmul@b,w
  1557  069F  00A8               	movwf	??___flmul
  1558  06A0  0828               	movf	??___flmul,w
  1559  06A1  00F0               	movwf	__Umul8_16@multiplicand
  1560  06A2  0825               	movf	___flmul@a+1,w
  1561  06A3  3182  2226  3185   	fcall	__Umul8_16
  1562  06A6  0871               	movf	?__Umul8_16+1,w
  1563  06A7  0020               	movlb	0	; select bank0
  1564  06A8  00B9               	movwf	___flmul@temp+1
  1565  06A9  0870               	movf	?__Umul8_16,w
  1566  06AA  00B8               	movwf	___flmul@temp
  1567  06AB                     l1290:
  1568  06AB  0838               	movf	___flmul@temp,w
  1569  06AC  07AE               	addwf	___flmul@grs,f
  1570  06AD  0839               	movf	___flmul@temp+1,w
  1571  06AE  3DAF               	addwfc	___flmul@grs+1,f
  1572  06AF  3000               	movlw	0
  1573  06B0  3DB0               	addwfc	___flmul@grs+2,f
  1574  06B1  3DB1               	addwfc	___flmul@grs+3,f
  1575  06B2                     l1292:
  1576  06B2  3008               	movlw	8
  1577  06B3                     u1365:
  1578  06B3  35AE               	lslf	___flmul@grs,f
  1579  06B4  0DAF               	rlf	___flmul@grs+1,f
  1580  06B5  0DB0               	rlf	___flmul@grs+2,f
  1581  06B6  0DB1               	rlf	___flmul@grs+3,f
  1582  06B7  0B89               	decfsz	9,f
  1583  06B8  2EB3               	goto	u1365
  1584  06B9  0820               	movf	___flmul@b,w
  1585  06BA  00A8               	movwf	??___flmul
  1586  06BB  0828               	movf	??___flmul,w
  1587  06BC  00F0               	movwf	__Umul8_16@multiplicand
  1588  06BD  0824               	movf	___flmul@a,w
  1589  06BE  3182  2226  3185   	fcall	__Umul8_16
  1590  06C1  0871               	movf	?__Umul8_16+1,w
  1591  06C2  0020               	movlb	0	; select bank0
  1592  06C3  00B9               	movwf	___flmul@temp+1
  1593  06C4  0870               	movf	?__Umul8_16,w
  1594  06C5  00B8               	movwf	___flmul@temp
  1595  06C6                     l1294:
  1596  06C6  0838               	movf	___flmul@temp,w
  1597  06C7  07AE               	addwf	___flmul@grs,f
  1598  06C8  0839               	movf	___flmul@temp+1,w
  1599  06C9  3DAF               	addwfc	___flmul@grs+1,f
  1600  06CA  3000               	movlw	0
  1601  06CB  3DB0               	addwfc	___flmul@grs+2,f
  1602  06CC  3DB1               	addwfc	___flmul@grs+3,f
  1603  06CD                     l1296:
  1604  06CD  0821               	movf	___flmul@b+1,w
  1605  06CE  00A8               	movwf	??___flmul
  1606  06CF  0828               	movf	??___flmul,w
  1607  06D0  00F0               	movwf	__Umul8_16@multiplicand
  1608  06D1  0826               	movf	___flmul@a+2,w
  1609  06D2  3182  2226  3185   	fcall	__Umul8_16
  1610  06D5  0871               	movf	?__Umul8_16+1,w
  1611  06D6  0020               	movlb	0	; select bank0
  1612  06D7  00B9               	movwf	___flmul@temp+1
  1613  06D8  0870               	movf	?__Umul8_16,w
  1614  06D9  00B8               	movwf	___flmul@temp
  1615  06DA  0838               	movf	___flmul@temp,w
  1616  06DB  07B4               	addwf	___flmul@prod,f
  1617  06DC  0839               	movf	___flmul@temp+1,w
  1618  06DD  3DB5               	addwfc	___flmul@prod+1,f
  1619  06DE  3000               	movlw	0
  1620  06DF  3DB6               	addwfc	___flmul@prod+2,f
  1621  06E0  3DB7               	addwfc	___flmul@prod+3,f
  1622  06E1                     l1298:
  1623  06E1  0822               	movf	___flmul@b+2,w
  1624  06E2  00A8               	movwf	??___flmul
  1625  06E3  0828               	movf	??___flmul,w
  1626  06E4  00F0               	movwf	__Umul8_16@multiplicand
  1627  06E5  0825               	movf	___flmul@a+1,w
  1628  06E6  3182  2226  3185   	fcall	__Umul8_16
  1629  06E9  0871               	movf	?__Umul8_16+1,w
  1630  06EA  0020               	movlb	0	; select bank0
  1631  06EB  00B9               	movwf	___flmul@temp+1
  1632  06EC  0870               	movf	?__Umul8_16,w
  1633  06ED  00B8               	movwf	___flmul@temp
  1634  06EE                     l1300:
  1635  06EE  0838               	movf	___flmul@temp,w
  1636  06EF  07B4               	addwf	___flmul@prod,f
  1637  06F0  0839               	movf	___flmul@temp+1,w
  1638  06F1  3DB5               	addwfc	___flmul@prod+1,f
  1639  06F2  3000               	movlw	0
  1640  06F3  3DB6               	addwfc	___flmul@prod+2,f
  1641  06F4  3DB7               	addwfc	___flmul@prod+3,f
  1642  06F5  0822               	movf	___flmul@b+2,w
  1643  06F6  00A8               	movwf	??___flmul
  1644  06F7  0828               	movf	??___flmul,w
  1645  06F8  00F0               	movwf	__Umul8_16@multiplicand
  1646  06F9  0826               	movf	___flmul@a+2,w
  1647  06FA  3182  2226  3185   	fcall	__Umul8_16
  1648  06FD  0871               	movf	?__Umul8_16+1,w
  1649  06FE  0020               	movlb	0	; select bank0
  1650  06FF  00B9               	movwf	___flmul@temp+1
  1651  0700  0870               	movf	?__Umul8_16,w
  1652  0701  00B8               	movwf	___flmul@temp
  1653  0702                     l1302:
  1654  0702  0838               	movf	___flmul@temp,w
  1655  0703  00A8               	movwf	??___flmul
  1656  0704  0839               	movf	___flmul@temp+1,w
  1657  0705  00A9               	movwf	??___flmul+1
  1658  0706  01AA               	clrf	??___flmul+2
  1659  0707  01AB               	clrf	??___flmul+3
  1660  0708  3008               	movlw	8
  1661  0709                     u1375:
  1662  0709  35A8               	lslf	??___flmul,f
  1663  070A  0DA9               	rlf	??___flmul+1,f
  1664  070B  0DAA               	rlf	??___flmul+2,f
  1665  070C  0DAB               	rlf	??___flmul+3,f
  1666  070D                     u1370:
  1667  070D  0B89               	decfsz	9,f
  1668  070E  2F09               	goto	u1375
  1669  070F  0828               	movf	??___flmul,w
  1670  0710  07B4               	addwf	___flmul@prod,f
  1671  0711  0829               	movf	??___flmul+1,w
  1672  0712  3DB5               	addwfc	___flmul@prod+1,f
  1673  0713  082A               	movf	??___flmul+2,w
  1674  0714  3DB6               	addwfc	___flmul@prod+2,f
  1675  0715  082B               	movf	??___flmul+3,w
  1676  0716  3DB7               	addwfc	___flmul@prod+3,f
  1677  0717                     l1304:
  1678  0717  082E               	movf	___flmul@grs,w
  1679  0718  00A8               	movwf	??___flmul
  1680  0719  082F               	movf	___flmul@grs+1,w
  1681  071A  00A9               	movwf	??___flmul+1
  1682  071B  0830               	movf	___flmul@grs+2,w
  1683  071C  00AA               	movwf	??___flmul+2
  1684  071D  0831               	movf	___flmul@grs+3,w
  1685  071E  00AB               	movwf	??___flmul+3
  1686  071F  3018               	movlw	24
  1687  0720                     u1385:
  1688  0720  36AB               	lsrf	??___flmul+3,f
  1689  0721  0CAA               	rrf	??___flmul+2,f
  1690  0722  0CA9               	rrf	??___flmul+1,f
  1691  0723  0CA8               	rrf	??___flmul,f
  1692  0724                     u1380:
  1693  0724  0B89               	decfsz	9,f
  1694  0725  2F20               	goto	u1385
  1695  0726  0828               	movf	??___flmul,w
  1696  0727  07B4               	addwf	___flmul@prod,f
  1697  0728  0829               	movf	??___flmul+1,w
  1698  0729  3DB5               	addwfc	___flmul@prod+1,f
  1699  072A  082A               	movf	??___flmul+2,w
  1700  072B  3DB6               	addwfc	___flmul@prod+2,f
  1701  072C  082B               	movf	??___flmul+3,w
  1702  072D  3DB7               	addwfc	___flmul@prod+3,f
  1703  072E                     l1306:
  1704  072E  3008               	movlw	8
  1705  072F                     u1395:
  1706  072F  35AE               	lslf	___flmul@grs,f
  1707  0730  0DAF               	rlf	___flmul@grs+1,f
  1708  0731  0DB0               	rlf	___flmul@grs+2,f
  1709  0732  0DB1               	rlf	___flmul@grs+3,f
  1710  0733  0B89               	decfsz	9,f
  1711  0734  2F2F               	goto	u1395
  1712  0735                     l1308:
  1713  0735  0833               	movf	___flmul@bexp,w
  1714  0736  0732               	addwf	___flmul@aexp,w
  1715  0737  00A8               	movwf	??___flmul
  1716  0738  01A9               	clrf	??___flmul+1
  1717  0739  0DA9               	rlf	??___flmul+1,f
  1718  073A  0828               	movf	??___flmul,w
  1719  073B  3E82               	addlw	130
  1720  073C  00B8               	movwf	___flmul@temp
  1721  073D  30FF               	movlw	255
  1722  073E  3D29               	addwfc	??___flmul+1,w
  1723  073F  00B9               	movwf	___flmul@temp+1
  1724  0740  2F58               	goto	l1320
  1725  0741                     l1310:
  1726  0741  3001               	movlw	1
  1727  0742                     u1405:
  1728  0742  35B4               	lslf	___flmul@prod,f
  1729  0743  0DB5               	rlf	___flmul@prod+1,f
  1730  0744  0DB6               	rlf	___flmul@prod+2,f
  1731  0745  0DB7               	rlf	___flmul@prod+3,f
  1732  0746  0B89               	decfsz	9,f
  1733  0747  2F42               	goto	u1405
  1734  0748                     l1312:
  1735  0748  1FB1               	btfss	___flmul@grs+3,7
  1736  0749  2F4B               	goto	u1411
  1737  074A  2F4C               	goto	u1410
  1738  074B                     u1411:
  1739  074B  2F4D               	goto	l1316
  1740  074C                     u1410:
  1741  074C                     l1314:
  1742  074C  1434               	bsf	___flmul@prod,0
  1743  074D                     l1316:
  1744  074D  3001               	movlw	1
  1745  074E                     u1425:
  1746  074E  35AE               	lslf	___flmul@grs,f
  1747  074F  0DAF               	rlf	___flmul@grs+1,f
  1748  0750  0DB0               	rlf	___flmul@grs+2,f
  1749  0751  0DB1               	rlf	___flmul@grs+3,f
  1750  0752  0B89               	decfsz	9,f
  1751  0753  2F4E               	goto	u1425
  1752  0754                     l1318:
  1753  0754  30FF               	movlw	255
  1754  0755  07B8               	addwf	___flmul@temp,f
  1755  0756  30FF               	movlw	255
  1756  0757  3DB9               	addwfc	___flmul@temp+1,f
  1757  0758                     l1320:
  1758  0758  1FB6               	btfss	___flmul@prod+2,7
  1759  0759  2F5B               	goto	u1431
  1760  075A  2F5C               	goto	u1430
  1761  075B                     u1431:
  1762  075B  2F41               	goto	l1310
  1763  075C                     u1430:
  1764  075C                     l1322:
  1765  075C  01B2               	clrf	___flmul@aexp
  1766  075D                     l1324:
  1767  075D  1FB1               	btfss	___flmul@grs+3,7
  1768  075E  2F60               	goto	u1441
  1769  075F  2F61               	goto	u1440
  1770  0760                     u1441:
  1771  0760  2F7D               	goto	l1332
  1772  0761                     u1440:
  1773  0761                     l1326:
  1774  0761  30FF               	movlw	255
  1775  0762  052E               	andwf	___flmul@grs,w
  1776  0763  00A8               	movwf	??___flmul
  1777  0764  30FF               	movlw	255
  1778  0765  052F               	andwf	___flmul@grs+1,w
  1779  0766  00A9               	movwf	??___flmul+1
  1780  0767  30FF               	movlw	255
  1781  0768  0530               	andwf	___flmul@grs+2,w
  1782  0769  00AA               	movwf	??___flmul+2
  1783  076A  307F               	movlw	127
  1784  076B  0531               	andwf	___flmul@grs+3,w
  1785  076C  00AB               	movwf	??___flmul+3
  1786  076D  082B               	movf	??___flmul+3,w
  1787  076E  042A               	iorwf	??___flmul+2,w
  1788  076F  0429               	iorwf	??___flmul+1,w
  1789  0770  0428               	iorwf	??___flmul,w
  1790  0771  1903               	skipnz
  1791  0772  2F74               	goto	u1451
  1792  0773  2F75               	goto	u1450
  1793  0774                     u1451:
  1794  0774  2F78               	goto	l583
  1795  0775                     u1450:
  1796  0775                     l1328:
  1797  0775  01B2               	clrf	___flmul@aexp
  1798  0776  0AB2               	incf	___flmul@aexp,f
  1799  0777  2F7D               	goto	l1332
  1800  0778                     l583:
  1801  0778  1C34               	btfss	___flmul@prod,0
  1802  0779  2F7B               	goto	u1461
  1803  077A  2F7C               	goto	u1460
  1804  077B                     u1461:
  1805  077B  2F7D               	goto	l1332
  1806  077C                     u1460:
  1807  077C  2F75               	goto	l1328
  1808  077D                     l1332:
  1809  077D  0832               	movf	___flmul@aexp,w
  1810  077E  1903               	btfsc	3,2
  1811  077F  2F81               	goto	u1471
  1812  0780  2F82               	goto	u1470
  1813  0781                     u1471:
  1814  0781  2FAA               	goto	l1342
  1815  0782                     u1470:
  1816  0782                     l1334:
  1817  0782  3001               	movlw	1
  1818  0783  07B4               	addwf	___flmul@prod,f
  1819  0784  3000               	movlw	0
  1820  0785  3DB5               	addwfc	___flmul@prod+1,f
  1821  0786  3000               	movlw	0
  1822  0787  3DB6               	addwfc	___flmul@prod+2,f
  1823  0788  3000               	movlw	0
  1824  0789  3DB7               	addwfc	___flmul@prod+3,f
  1825  078A                     l1336:
  1826  078A  1C37               	btfss	___flmul@prod+3,0
  1827  078B  2F8D               	goto	u1481
  1828  078C  2F8E               	goto	u1480
  1829  078D                     u1481:
  1830  078D  2FAA               	goto	l1342
  1831  078E                     u1480:
  1832  078E                     l1338:
  1833  078E  0834               	movf	___flmul@prod,w
  1834  078F  00A8               	movwf	??___flmul
  1835  0790  0835               	movf	___flmul@prod+1,w
  1836  0791  00A9               	movwf	??___flmul+1
  1837  0792  0836               	movf	___flmul@prod+2,w
  1838  0793  00AA               	movwf	??___flmul+2
  1839  0794  0837               	movf	___flmul@prod+3,w
  1840  0795  00AB               	movwf	??___flmul+3
  1841  0796  3001               	movlw	1
  1842  0797  00AC               	movwf	??___flmul+4
  1843  0798                     u1495:
  1844  0798  37AB               	asrf	??___flmul+3,f
  1845  0799  0CAA               	rrf	??___flmul+2,f
  1846  079A  0CA9               	rrf	??___flmul+1,f
  1847  079B  0CA8               	rrf	??___flmul,f
  1848  079C                     u1490:
  1849  079C  0BAC               	decfsz	??___flmul+4,f
  1850  079D  2F98               	goto	u1495
  1851  079E  082B               	movf	??___flmul+3,w
  1852  079F  00B7               	movwf	___flmul@prod+3
  1853  07A0  082A               	movf	??___flmul+2,w
  1854  07A1  00B6               	movwf	___flmul@prod+2
  1855  07A2  0829               	movf	??___flmul+1,w
  1856  07A3  00B5               	movwf	___flmul@prod+1
  1857  07A4  0828               	movf	??___flmul,w
  1858  07A5  00B4               	movwf	___flmul@prod
  1859  07A6                     l1340:
  1860  07A6  3001               	movlw	1
  1861  07A7  07B8               	addwf	___flmul@temp,f
  1862  07A8  3000               	movlw	0
  1863  07A9  3DB9               	addwfc	___flmul@temp+1,f
  1864  07AA                     l1342:
  1865  07AA  0839               	movf	___flmul@temp+1,w
  1866  07AB  3A80               	xorlw	128
  1867  07AC  00A8               	movwf	??___flmul
  1868  07AD  3080               	movlw	128
  1869  07AE  0228               	subwf	??___flmul,w
  1870  07AF  1D03               	skipz
  1871  07B0  2FB3               	goto	u1505
  1872  07B1  30FF               	movlw	255
  1873  07B2  0238               	subwf	___flmul@temp,w
  1874  07B3                     u1505:
  1875  07B3  1C03               	skipc
  1876  07B4  2FB6               	goto	u1501
  1877  07B5  2FB7               	goto	u1500
  1878  07B6                     u1501:
  1879  07B6  2FC1               	goto	l1346
  1880  07B7                     u1500:
  1881  07B7                     l1344:
  1882  07B7  307F               	movlw	127
  1883  07B8  0020               	movlb	0	; select bank0
  1884  07B9  00B7               	movwf	___flmul@prod+3
  1885  07BA  3080               	movlw	128
  1886  07BB  00B6               	movwf	___flmul@prod+2
  1887  07BC  3000               	movlw	0
  1888  07BD  00B5               	movwf	___flmul@prod+1
  1889  07BE  3000               	movlw	0
  1890  07BF  00B4               	movwf	___flmul@prod
  1891  07C0  2FF0               	goto	l589
  1892  07C1                     l1346:
  1893  07C1  0020               	movlb	0	; select bank0
  1894  07C2  0839               	movf	___flmul@temp+1,w
  1895  07C3  3A80               	xorlw	128
  1896  07C4  00A8               	movwf	??___flmul
  1897  07C5  3080               	movlw	128
  1898  07C6  0228               	subwf	??___flmul,w
  1899  07C7  1D03               	skipz
  1900  07C8  2FCB               	goto	u1515
  1901  07C9  3001               	movlw	1
  1902  07CA  0238               	subwf	___flmul@temp,w
  1903  07CB                     u1515:
  1904  07CB  1803               	skipnc
  1905  07CC  2FCE               	goto	u1511
  1906  07CD  2FCF               	goto	u1510
  1907  07CE                     u1511:
  1908  07CE  2FDA               	goto	l1352
  1909  07CF                     u1510:
  1910  07CF                     l1348:
  1911  07CF  3000               	movlw	0
  1912  07D0  0020               	movlb	0	; select bank0
  1913  07D1  00B7               	movwf	___flmul@prod+3
  1914  07D2  3000               	movlw	0
  1915  07D3  00B6               	movwf	___flmul@prod+2
  1916  07D4  3000               	movlw	0
  1917  07D5  00B5               	movwf	___flmul@prod+1
  1918  07D6  3000               	movlw	0
  1919  07D7  00B4               	movwf	___flmul@prod
  1920  07D8                     l1350:
  1921  07D8  01AD               	clrf	___flmul@sign
  1922  07D9  2FF0               	goto	l589
  1923  07DA                     l1352:
  1924  07DA  0020               	movlb	0	; select bank0
  1925  07DB  0838               	movf	___flmul@temp,w
  1926  07DC  00A8               	movwf	??___flmul
  1927  07DD  0828               	movf	??___flmul,w
  1928  07DE  00B3               	movwf	___flmul@bexp
  1929  07DF  30FF               	movlw	255
  1930  07E0  05B4               	andwf	___flmul@prod,f
  1931  07E1  30FF               	movlw	255
  1932  07E2  05B5               	andwf	___flmul@prod+1,f
  1933  07E3  307F               	movlw	127
  1934  07E4  05B6               	andwf	___flmul@prod+2,f
  1935  07E5  3000               	movlw	0
  1936  07E6  05B7               	andwf	___flmul@prod+3,f
  1937  07E7                     l1354:
  1938  07E7  1C33               	btfss	___flmul@bexp,0
  1939  07E8  2FEA               	goto	u1521
  1940  07E9  2FEB               	goto	u1520
  1941  07EA                     u1521:
  1942  07EA  2FEC               	goto	l1358
  1943  07EB                     u1520:
  1944  07EB                     l1356:
  1945  07EB  17B6               	bsf	___flmul@prod+2,7
  1946  07EC                     l1358:
  1947  07EC  3633               	lsrf	___flmul@bexp,w
  1948  07ED  00A8               	movwf	??___flmul
  1949  07EE  0828               	movf	??___flmul,w
  1950  07EF  00B7               	movwf	___flmul@prod+3
  1951  07F0                     l589:
  1952  07F0  082D               	movf	___flmul@sign,w
  1953  07F1  00A8               	movwf	??___flmul
  1954  07F2  0828               	movf	??___flmul,w
  1955  07F3  04B7               	iorwf	___flmul@prod+3,f
  1956  07F4                     l1360:
  1957  07F4  0837               	movf	___flmul@prod+3,w
  1958  07F5  00A3               	movwf	?___flmul+3
  1959  07F6  0836               	movf	___flmul@prod+2,w
  1960  07F7  00A2               	movwf	?___flmul+2
  1961  07F8  0835               	movf	___flmul@prod+1,w
  1962  07F9  00A1               	movwf	?___flmul+1
  1963  07FA  0834               	movf	___flmul@prod,w
  1964  07FB  00A0               	movwf	?___flmul
  1965  07FC                     l577:
  1966  07FC  0008               	return
  1967  07FD                     __end_of___flmul:
  1968                           
  1969                           	psect	text4
  1970  0226                     __ptext4:	
  1971 ;; *************** function __Umul8_16 *****************
  1972 ;; Defined at:
  1973 ;;		line 4 in file "C:\Program Files\Microchip\xc8\v2.20\pic\sources\c99\common\Umul8_16.c"
  1974 ;; Parameters:    Size  Location     Type
  1975 ;;  multiplier      1    wreg     unsigned char 
  1976 ;;  multiplicand    1    0[COMMON] unsigned char 
  1977 ;; Auto vars:     Size  Location     Type
  1978 ;;  multiplier      1    8[COMMON] unsigned char 
  1979 ;;  word_mpld       2    6[COMMON] unsigned int 
  1980 ;;  product         2    4[COMMON] unsigned int 
  1981 ;; Return value:  Size  Location     Type
  1982 ;;                  2    0[COMMON] unsigned int 
  1983 ;; Registers used:
  1984 ;;		wreg, status,2, status,0
  1985 ;; Tracked objects:
  1986 ;;		On entry : 0/0
  1987 ;;		On exit  : 0/0
  1988 ;;		Unchanged: 0/0
  1989 ;; Data sizes:     COMMON   BANK0   BANK1   BANK2   BANK3   BANK4   BANK5   BANK6
  1990 ;;      Params:         2       0       0       0       0       0       0       0
  1991 ;;      Locals:         5       0       0       0       0       0       0       0
  1992 ;;      Temps:          2       0       0       0       0       0       0       0
  1993 ;;      Totals:         9       0       0       0       0       0       0       0
  1994 ;;Total ram usage:        9 bytes
  1995 ;; Hardware stack levels used:    1
  1996 ;; This function calls:
  1997 ;;		Nothing
  1998 ;; This function is called by:
  1999 ;;		___flmul
  2000 ;; This function uses a non-reentrant model
  2001 ;;
  2002                           
  2003                           
  2004                           ;psect for function __Umul8_16
  2005  0226                     __Umul8_16:
  2006                           
  2007                           ;incstack = 0
  2008                           ; Regs used in __Umul8_16: [wreg+status,2+status,0]
  2009                           ;__Umul8_16@multiplier stored from wreg
  2010  0226  00F8               	movwf	__Umul8_16@multiplier
  2011  0227                     l1034:
  2012  0227  01F4               	clrf	__Umul8_16@product
  2013  0228  01F5               	clrf	__Umul8_16@product+1
  2014  0229                     l1036:
  2015  0229  0870               	movf	__Umul8_16@multiplicand,w
  2016  022A  00F2               	movwf	??__Umul8_16
  2017  022B  01F3               	clrf	??__Umul8_16+1
  2018  022C  0872               	movf	??__Umul8_16,w
  2019  022D  00F6               	movwf	__Umul8_16@word_mpld
  2020  022E  0873               	movf	??__Umul8_16+1,w
  2021  022F  00F7               	movwf	__Umul8_16@word_mpld+1
  2022  0230                     l1038:
  2023  0230  1C78               	btfss	__Umul8_16@multiplier,0
  2024  0231  2A33               	goto	u851
  2025  0232  2A34               	goto	u850
  2026  0233                     u851:
  2027  0233  2A38               	goto	l596
  2028  0234                     u850:
  2029  0234                     l1040:
  2030  0234  0876               	movf	__Umul8_16@word_mpld,w
  2031  0235  07F4               	addwf	__Umul8_16@product,f
  2032  0236  0877               	movf	__Umul8_16@word_mpld+1,w
  2033  0237  3DF5               	addwfc	__Umul8_16@product+1,f
  2034  0238                     l596:
  2035  0238  3001               	movlw	1
  2036  0239                     u865:
  2037  0239  35F6               	lslf	__Umul8_16@word_mpld,f
  2038  023A  0DF7               	rlf	__Umul8_16@word_mpld+1,f
  2039  023B  0B89               	decfsz	9,f
  2040  023C  2A39               	goto	u865
  2041  023D  1003               	clrc
  2042  023E  0CF8               	rrf	__Umul8_16@multiplier,f
  2043  023F                     l1042:
  2044  023F  0878               	movf	__Umul8_16@multiplier,w
  2045  0240  1D03               	btfss	3,2
  2046  0241  2A43               	goto	u871
  2047  0242  2A44               	goto	u870
  2048  0243                     u871:
  2049  0243  2A30               	goto	l1038
  2050  0244                     u870:
  2051  0244                     l1044:
  2052  0244  0875               	movf	__Umul8_16@product+1,w
  2053  0245  00F1               	movwf	?__Umul8_16+1
  2054  0246  0874               	movf	__Umul8_16@product,w
  2055  0247  00F0               	movwf	?__Umul8_16
  2056  0248                     l598:
  2057  0248  0008               	return
  2058  0249                     __end_of__Umul8_16:
  2059                           
  2060                           	psect	text5
  2061  03F2                     __ptext5:	
  2062 ;; *************** function ___fldiv *****************
  2063 ;; Defined at:
  2064 ;;		line 8 in file "C:\Program Files\Microchip\xc8\v2.20\pic\sources\c99\common\sprcdiv.c"
  2065 ;; Parameters:    Size  Location     Type
  2066 ;;  a               4   26[BANK0 ] unsigned int 
  2067 ;;  b               4   30[BANK0 ] unsigned int 
  2068 ;; Auto vars:     Size  Location     Type
  2069 ;;  grs             4   46[BANK0 ] unsigned long 
  2070 ;;  rem             4   39[BANK0 ] unsigned long 
  2071 ;;  new_exp         2   44[BANK0 ] int 
  2072 ;;  aexp            1   51[BANK0 ] unsigned char 
  2073 ;;  bexp            1   50[BANK0 ] unsigned char 
  2074 ;;  sign            1   43[BANK0 ] unsigned char 
  2075 ;; Return value:  Size  Location     Type
  2076 ;;                  4   26[BANK0 ] unsigned char 
  2077 ;; Registers used:
  2078 ;;		wreg, status,2, status,0
  2079 ;; Tracked objects:
  2080 ;;		On entry : 0/0
  2081 ;;		On exit  : 0/0
  2082 ;;		Unchanged: 0/0
  2083 ;; Data sizes:     COMMON   BANK0   BANK1   BANK2   BANK3   BANK4   BANK5   BANK6
  2084 ;;      Params:         0       8       0       0       0       0       0       0
  2085 ;;      Locals:         0      13       0       0       0       0       0       0
  2086 ;;      Temps:          0       5       0       0       0       0       0       0
  2087 ;;      Totals:         0      26       0       0       0       0       0       0
  2088 ;;Total ram usage:       26 bytes
  2089 ;; Hardware stack levels used:    1
  2090 ;; This function calls:
  2091 ;;		Nothing
  2092 ;; This function is called by:
  2093 ;;		_main
  2094 ;; This function uses a non-reentrant model
  2095 ;;
  2096                           
  2097                           
  2098                           ;psect for function ___fldiv
  2099  03F2                     ___fldiv:
  2100  03F2                     l1084:	
  2101                           ;incstack = 0
  2102                           ; Regs used in ___fldiv: [wreg+status,2+status,0]
  2103                           
  2104  03F2  0020               	movlb	0	; select bank0
  2105  03F3  0841               	movf	___fldiv@b+3,w
  2106  03F4  3980               	andlw	128
  2107  03F5  00C2               	movwf	??___fldiv
  2108  03F6  0842               	movf	??___fldiv,w
  2109  03F7  00CB               	movwf	___fldiv@sign
  2110  03F8                     l1086:
  2111  03F8  3541               	lslf	___fldiv@b+3,w
  2112  03F9  00C2               	movwf	??___fldiv
  2113  03FA  0842               	movf	??___fldiv,w
  2114  03FB  00D2               	movwf	___fldiv@bexp
  2115  03FC                     l1088:
  2116  03FC  1FC0               	btfss	___fldiv@b+2,7
  2117  03FD  2BFF               	goto	u981
  2118  03FE  2C00               	goto	u980
  2119  03FF                     u981:
  2120  03FF  2C01               	goto	l1092
  2121  0400                     u980:
  2122  0400                     l1090:
  2123  0400  1452               	bsf	___fldiv@bexp,0
  2124  0401                     l1092:
  2125  0401  0852               	movf	___fldiv@bexp,w
  2126  0402  1903               	btfsc	3,2
  2127  0403  2C05               	goto	u991
  2128  0404  2C06               	goto	u990
  2129  0405                     u991:
  2130  0405  2C16               	goto	l1102
  2131  0406                     u990:
  2132  0406                     l1094:
  2133  0406  0A52               	incf	___fldiv@bexp,w
  2134  0407  1D03               	btfss	3,2
  2135  0408  2C0A               	goto	u1001
  2136  0409  2C0B               	goto	u1000
  2137  040A                     u1001:
  2138  040A  2C13               	goto	l1098
  2139  040B                     u1000:
  2140  040B                     l1096:
  2141  040B  3000               	movlw	0
  2142  040C  00C1               	movwf	___fldiv@b+3
  2143  040D  3000               	movlw	0
  2144  040E  00C0               	movwf	___fldiv@b+2
  2145  040F  3000               	movlw	0
  2146  0410  00BF               	movwf	___fldiv@b+1
  2147  0411  3000               	movlw	0
  2148  0412  00BE               	movwf	___fldiv@b
  2149  0413                     l1098:
  2150  0413  17C0               	bsf	___fldiv@b+2,7
  2151  0414                     l1100:
  2152  0414  01C1               	clrf	___fldiv@b+3
  2153  0415  2C1E               	goto	l1104
  2154  0416                     l1102:
  2155  0416  3000               	movlw	0
  2156  0417  00C1               	movwf	___fldiv@b+3
  2157  0418  3000               	movlw	0
  2158  0419  00C0               	movwf	___fldiv@b+2
  2159  041A  3000               	movlw	0
  2160  041B  00BF               	movwf	___fldiv@b+1
  2161  041C  3000               	movlw	0
  2162  041D  00BE               	movwf	___fldiv@b
  2163  041E                     l1104:
  2164  041E  083D               	movf	___fldiv@a+3,w
  2165  041F  3980               	andlw	128
  2166  0420  00C2               	movwf	??___fldiv
  2167  0421  0842               	movf	??___fldiv,w
  2168  0422  06CB               	xorwf	___fldiv@sign,f
  2169  0423                     l1106:
  2170  0423  353D               	lslf	___fldiv@a+3,w
  2171  0424  00C2               	movwf	??___fldiv
  2172  0425  0842               	movf	??___fldiv,w
  2173  0426  00D3               	movwf	___fldiv@aexp
  2174  0427                     l1108:
  2175  0427  1FBC               	btfss	___fldiv@a+2,7
  2176  0428  2C2A               	goto	u1011
  2177  0429  2C2B               	goto	u1010
  2178  042A                     u1011:
  2179  042A  2C2C               	goto	l1112
  2180  042B                     u1010:
  2181  042B                     l1110:
  2182  042B  1453               	bsf	___fldiv@aexp,0
  2183  042C                     l1112:
  2184  042C  0853               	movf	___fldiv@aexp,w
  2185  042D  1903               	btfsc	3,2
  2186  042E  2C30               	goto	u1021
  2187  042F  2C31               	goto	u1020
  2188  0430                     u1021:
  2189  0430  2C41               	goto	l1122
  2190  0431                     u1020:
  2191  0431                     l1114:
  2192  0431  0A53               	incf	___fldiv@aexp,w
  2193  0432  1D03               	btfss	3,2
  2194  0433  2C35               	goto	u1031
  2195  0434  2C36               	goto	u1030
  2196  0435                     u1031:
  2197  0435  2C3E               	goto	l1118
  2198  0436                     u1030:
  2199  0436                     l1116:
  2200  0436  3000               	movlw	0
  2201  0437  00BD               	movwf	___fldiv@a+3
  2202  0438  3000               	movlw	0
  2203  0439  00BC               	movwf	___fldiv@a+2
  2204  043A  3000               	movlw	0
  2205  043B  00BB               	movwf	___fldiv@a+1
  2206  043C  3000               	movlw	0
  2207  043D  00BA               	movwf	___fldiv@a
  2208  043E                     l1118:
  2209  043E  17BC               	bsf	___fldiv@a+2,7
  2210  043F                     l1120:
  2211  043F  01BD               	clrf	___fldiv@a+3
  2212  0440  2C49               	goto	l537
  2213  0441                     l1122:
  2214  0441  3000               	movlw	0
  2215  0442  00BD               	movwf	___fldiv@a+3
  2216  0443  3000               	movlw	0
  2217  0444  00BC               	movwf	___fldiv@a+2
  2218  0445  3000               	movlw	0
  2219  0446  00BB               	movwf	___fldiv@a+1
  2220  0447  3000               	movlw	0
  2221  0448  00BA               	movwf	___fldiv@a
  2222  0449                     l537:
  2223  0449  083D               	movf	___fldiv@a+3,w
  2224  044A  043C               	iorwf	___fldiv@a+2,w
  2225  044B  043B               	iorwf	___fldiv@a+1,w
  2226  044C  043A               	iorwf	___fldiv@a,w
  2227  044D  1D03               	skipz
  2228  044E  2C50               	goto	u1041
  2229  044F  2C51               	goto	u1040
  2230  0450                     u1041:
  2231  0450  2C6A               	goto	l1132
  2232  0451                     u1040:
  2233  0451                     l1124:
  2234  0451  3000               	movlw	0
  2235  0452  00C1               	movwf	___fldiv@b+3
  2236  0453  3000               	movlw	0
  2237  0454  00C0               	movwf	___fldiv@b+2
  2238  0455  3000               	movlw	0
  2239  0456  00BF               	movwf	___fldiv@b+1
  2240  0457  3000               	movlw	0
  2241  0458  00BE               	movwf	___fldiv@b
  2242  0459  3080               	movlw	128
  2243  045A  04C0               	iorwf	___fldiv@b+2,f
  2244  045B  307F               	movlw	127
  2245  045C  04C1               	iorwf	___fldiv@b+3,f
  2246  045D                     l1126:
  2247  045D  084B               	movf	___fldiv@sign,w
  2248  045E  00C2               	movwf	??___fldiv
  2249  045F  0842               	movf	??___fldiv,w
  2250  0460  04C1               	iorwf	___fldiv@b+3,f
  2251  0461                     l1128:
  2252  0461  0841               	movf	___fldiv@b+3,w
  2253  0462  00BD               	movwf	?___fldiv+3
  2254  0463  0840               	movf	___fldiv@b+2,w
  2255  0464  00BC               	movwf	?___fldiv+2
  2256  0465  083F               	movf	___fldiv@b+1,w
  2257  0466  00BB               	movwf	?___fldiv+1
  2258  0467  083E               	movf	___fldiv@b,w
  2259  0468  00BA               	movwf	?___fldiv
  2260  0469  2DA5               	goto	l539
  2261  046A                     l1132:
  2262  046A  0852               	movf	___fldiv@bexp,w
  2263  046B  1D03               	btfss	3,2
  2264  046C  2C6E               	goto	u1051
  2265  046D  2C6F               	goto	u1050
  2266  046E                     u1051:
  2267  046E  2C78               	goto	l1138
  2268  046F                     u1050:
  2269  046F                     l1134:
  2270  046F  3000               	movlw	0
  2271  0470  00BD               	movwf	?___fldiv+3
  2272  0471  3000               	movlw	0
  2273  0472  00BC               	movwf	?___fldiv+2
  2274  0473  3000               	movlw	0
  2275  0474  00BB               	movwf	?___fldiv+1
  2276  0475  3000               	movlw	0
  2277  0476  00BA               	movwf	?___fldiv
  2278  0477  2DA5               	goto	l539
  2279  0478                     l1138:
  2280  0478  0852               	movf	___fldiv@bexp,w
  2281  0479  00C2               	movwf	??___fldiv
  2282  047A  01C3               	clrf	??___fldiv+1
  2283  047B  0843               	movf	??___fldiv+1,w
  2284  047C  00C5               	movwf	??___fldiv+3
  2285  047D  0853               	movf	___fldiv@aexp,w
  2286  047E  0242               	subwf	??___fldiv,w
  2287  047F  00C4               	movwf	??___fldiv+2
  2288  0480  1C03               	skipc
  2289  0481  03C5               	decf	??___fldiv+3,f
  2290  0482  0844               	movf	??___fldiv+2,w
  2291  0483  3E7F               	addlw	127
  2292  0484  00CC               	movwf	___fldiv@new_exp
  2293  0485  3000               	movlw	0
  2294  0486  3D45               	addwfc	??___fldiv+3,w
  2295  0487  00CD               	movwf	___fldiv@new_exp+1
  2296  0488                     l1140:
  2297  0488  0841               	movf	___fldiv@b+3,w
  2298  0489  00CA               	movwf	___fldiv@rem+3
  2299  048A  0840               	movf	___fldiv@b+2,w
  2300  048B  00C9               	movwf	___fldiv@rem+2
  2301  048C  083F               	movf	___fldiv@b+1,w
  2302  048D  00C8               	movwf	___fldiv@rem+1
  2303  048E  083E               	movf	___fldiv@b,w
  2304  048F  00C7               	movwf	___fldiv@rem
  2305  0490                     l1142:
  2306  0490  3000               	movlw	0
  2307  0491  00C1               	movwf	___fldiv@b+3
  2308  0492  3000               	movlw	0
  2309  0493  00C0               	movwf	___fldiv@b+2
  2310  0494  3000               	movlw	0
  2311  0495  00BF               	movwf	___fldiv@b+1
  2312  0496  3000               	movlw	0
  2313  0497  00BE               	movwf	___fldiv@b
  2314  0498                     l1144:
  2315  0498  3000               	movlw	0
  2316  0499  00D1               	movwf	___fldiv@grs+3
  2317  049A  3000               	movlw	0
  2318  049B  00D0               	movwf	___fldiv@grs+2
  2319  049C  3000               	movlw	0
  2320  049D  00CF               	movwf	___fldiv@grs+1
  2321  049E  3000               	movlw	0
  2322  049F  00CE               	movwf	___fldiv@grs
  2323  04A0                     l1146:
  2324  04A0  01D3               	clrf	___fldiv@aexp
  2325  04A1  2CE0               	goto	l1166
  2326  04A2                     l1148:
  2327  04A2  0853               	movf	___fldiv@aexp,w
  2328  04A3  1903               	btfsc	3,2
  2329  04A4  2CA6               	goto	u1061
  2330  04A5  2CA7               	goto	u1060
  2331  04A6                     u1061:
  2332  04A6  2CC1               	goto	l1158
  2333  04A7                     u1060:
  2334  04A7                     l1150:
  2335  04A7  3001               	movlw	1
  2336  04A8                     u1075:
  2337  04A8  35C7               	lslf	___fldiv@rem,f
  2338  04A9  0DC8               	rlf	___fldiv@rem+1,f
  2339  04AA  0DC9               	rlf	___fldiv@rem+2,f
  2340  04AB  0DCA               	rlf	___fldiv@rem+3,f
  2341  04AC  0B89               	decfsz	9,f
  2342  04AD  2CA8               	goto	u1075
  2343  04AE  3001               	movlw	1
  2344  04AF                     u1085:
  2345  04AF  35BE               	lslf	___fldiv@b,f
  2346  04B0  0DBF               	rlf	___fldiv@b+1,f
  2347  04B1  0DC0               	rlf	___fldiv@b+2,f
  2348  04B2  0DC1               	rlf	___fldiv@b+3,f
  2349  04B3  0B89               	decfsz	9,f
  2350  04B4  2CAF               	goto	u1085
  2351  04B5                     l1152:
  2352  04B5  1FD1               	btfss	___fldiv@grs+3,7
  2353  04B6  2CB8               	goto	u1091
  2354  04B7  2CB9               	goto	u1090
  2355  04B8                     u1091:
  2356  04B8  2CBA               	goto	l1156
  2357  04B9                     u1090:
  2358  04B9                     l1154:
  2359  04B9  143E               	bsf	___fldiv@b,0
  2360  04BA                     l1156:
  2361  04BA  3001               	movlw	1
  2362  04BB                     u1105:
  2363  04BB  35CE               	lslf	___fldiv@grs,f
  2364  04BC  0DCF               	rlf	___fldiv@grs+1,f
  2365  04BD  0DD0               	rlf	___fldiv@grs+2,f
  2366  04BE  0DD1               	rlf	___fldiv@grs+3,f
  2367  04BF  0B89               	decfsz	9,f
  2368  04C0  2CBB               	goto	u1105
  2369  04C1                     l1158:
  2370  04C1  083D               	movf	___fldiv@a+3,w
  2371  04C2  024A               	subwf	___fldiv@rem+3,w
  2372  04C3  1D03               	skipz
  2373  04C4  2CCF               	goto	u1115
  2374  04C5  083C               	movf	___fldiv@a+2,w
  2375  04C6  0249               	subwf	___fldiv@rem+2,w
  2376  04C7  1D03               	skipz
  2377  04C8  2CCF               	goto	u1115
  2378  04C9  083B               	movf	___fldiv@a+1,w
  2379  04CA  0248               	subwf	___fldiv@rem+1,w
  2380  04CB  1D03               	skipz
  2381  04CC  2CCF               	goto	u1115
  2382  04CD  083A               	movf	___fldiv@a,w
  2383  04CE  0247               	subwf	___fldiv@rem,w
  2384  04CF                     u1115:
  2385  04CF  1C03               	skipc
  2386  04D0  2CD2               	goto	u1111
  2387  04D1  2CD3               	goto	u1110
  2388  04D2                     u1111:
  2389  04D2  2CDC               	goto	l1164
  2390  04D3                     u1110:
  2391  04D3                     l1160:
  2392  04D3  1751               	bsf	___fldiv@grs+3,6
  2393  04D4                     l1162:
  2394  04D4  083A               	movf	___fldiv@a,w
  2395  04D5  02C7               	subwf	___fldiv@rem,f
  2396  04D6  083B               	movf	___fldiv@a+1,w
  2397  04D7  3BC8               	subwfb	___fldiv@rem+1,f
  2398  04D8  083C               	movf	___fldiv@a+2,w
  2399  04D9  3BC9               	subwfb	___fldiv@rem+2,f
  2400  04DA  083D               	movf	___fldiv@a+3,w
  2401  04DB  3BCA               	subwfb	___fldiv@rem+3,f
  2402  04DC                     l1164:
  2403  04DC  3001               	movlw	1
  2404  04DD  00C2               	movwf	??___fldiv
  2405  04DE  0842               	movf	??___fldiv,w
  2406  04DF  07D3               	addwf	___fldiv@aexp,f
  2407  04E0                     l1166:
  2408  04E0  301A               	movlw	26
  2409  04E1  0253               	subwf	___fldiv@aexp,w
  2410  04E2  1C03               	skipc
  2411  04E3  2CE5               	goto	u1121
  2412  04E4  2CE6               	goto	u1120
  2413  04E5                     u1121:
  2414  04E5  2CA2               	goto	l1148
  2415  04E6                     u1120:
  2416  04E6                     l1168:
  2417  04E6  084A               	movf	___fldiv@rem+3,w
  2418  04E7  0449               	iorwf	___fldiv@rem+2,w
  2419  04E8  0448               	iorwf	___fldiv@rem+1,w
  2420  04E9  0447               	iorwf	___fldiv@rem,w
  2421  04EA  1903               	skipnz
  2422  04EB  2CED               	goto	u1131
  2423  04EC  2CEE               	goto	u1130
  2424  04ED                     u1131:
  2425  04ED  2D07               	goto	l1182
  2426  04EE                     u1130:
  2427  04EE                     l1170:
  2428  04EE  144E               	bsf	___fldiv@grs,0
  2429  04EF  2D07               	goto	l1182
  2430  04F0                     l1172:
  2431  04F0  3001               	movlw	1
  2432  04F1                     u1145:
  2433  04F1  35BE               	lslf	___fldiv@b,f
  2434  04F2  0DBF               	rlf	___fldiv@b+1,f
  2435  04F3  0DC0               	rlf	___fldiv@b+2,f
  2436  04F4  0DC1               	rlf	___fldiv@b+3,f
  2437  04F5  0B89               	decfsz	9,f
  2438  04F6  2CF1               	goto	u1145
  2439  04F7                     l1174:
  2440  04F7  1FD1               	btfss	___fldiv@grs+3,7
  2441  04F8  2CFA               	goto	u1151
  2442  04F9  2CFB               	goto	u1150
  2443  04FA                     u1151:
  2444  04FA  2CFC               	goto	l1178
  2445  04FB                     u1150:
  2446  04FB                     l1176:
  2447  04FB  143E               	bsf	___fldiv@b,0
  2448  04FC                     l1178:
  2449  04FC  3001               	movlw	1
  2450  04FD                     u1165:
  2451  04FD  35CE               	lslf	___fldiv@grs,f
  2452  04FE  0DCF               	rlf	___fldiv@grs+1,f
  2453  04FF  0DD0               	rlf	___fldiv@grs+2,f
  2454  0500  0DD1               	rlf	___fldiv@grs+3,f
  2455  0501  0B89               	decfsz	9,f
  2456  0502  2CFD               	goto	u1165
  2457  0503                     l1180:
  2458  0503  30FF               	movlw	255
  2459  0504  07CC               	addwf	___fldiv@new_exp,f
  2460  0505  30FF               	movlw	255
  2461  0506  3DCD               	addwfc	___fldiv@new_exp+1,f
  2462  0507                     l1182:
  2463  0507  1FC0               	btfss	___fldiv@b+2,7
  2464  0508  2D0A               	goto	u1171
  2465  0509  2D0B               	goto	u1170
  2466  050A                     u1171:
  2467  050A  2CF0               	goto	l1172
  2468  050B                     u1170:
  2469  050B                     l1184:
  2470  050B  01D3               	clrf	___fldiv@aexp
  2471  050C                     l1186:
  2472  050C  1FD1               	btfss	___fldiv@grs+3,7
  2473  050D  2D0F               	goto	u1181
  2474  050E  2D10               	goto	u1180
  2475  050F                     u1181:
  2476  050F  2D2C               	goto	l1194
  2477  0510                     u1180:
  2478  0510                     l1188:
  2479  0510  30FF               	movlw	255
  2480  0511  054E               	andwf	___fldiv@grs,w
  2481  0512  00C2               	movwf	??___fldiv
  2482  0513  30FF               	movlw	255
  2483  0514  054F               	andwf	___fldiv@grs+1,w
  2484  0515  00C3               	movwf	??___fldiv+1
  2485  0516  30FF               	movlw	255
  2486  0517  0550               	andwf	___fldiv@grs+2,w
  2487  0518  00C4               	movwf	??___fldiv+2
  2488  0519  307F               	movlw	127
  2489  051A  0551               	andwf	___fldiv@grs+3,w
  2490  051B  00C5               	movwf	??___fldiv+3
  2491  051C  0845               	movf	??___fldiv+3,w
  2492  051D  0444               	iorwf	??___fldiv+2,w
  2493  051E  0443               	iorwf	??___fldiv+1,w
  2494  051F  0442               	iorwf	??___fldiv,w
  2495  0520  1903               	skipnz
  2496  0521  2D23               	goto	u1191
  2497  0522  2D24               	goto	u1190
  2498  0523                     u1191:
  2499  0523  2D27               	goto	l553
  2500  0524                     u1190:
  2501  0524                     l1190:
  2502  0524  01D3               	clrf	___fldiv@aexp
  2503  0525  0AD3               	incf	___fldiv@aexp,f
  2504  0526  2D2C               	goto	l1194
  2505  0527                     l553:
  2506  0527  1C3E               	btfss	___fldiv@b,0
  2507  0528  2D2A               	goto	u1201
  2508  0529  2D2B               	goto	u1200
  2509  052A                     u1201:
  2510  052A  2D2C               	goto	l1194
  2511  052B                     u1200:
  2512  052B  2D24               	goto	l1190
  2513  052C                     l1194:
  2514  052C  0853               	movf	___fldiv@aexp,w
  2515  052D  1903               	btfsc	3,2
  2516  052E  2D30               	goto	u1211
  2517  052F  2D31               	goto	u1210
  2518  0530                     u1211:
  2519  0530  2D59               	goto	l1204
  2520  0531                     u1210:
  2521  0531                     l1196:
  2522  0531  3001               	movlw	1
  2523  0532  07BE               	addwf	___fldiv@b,f
  2524  0533  3000               	movlw	0
  2525  0534  3DBF               	addwfc	___fldiv@b+1,f
  2526  0535  3000               	movlw	0
  2527  0536  3DC0               	addwfc	___fldiv@b+2,f
  2528  0537  3000               	movlw	0
  2529  0538  3DC1               	addwfc	___fldiv@b+3,f
  2530  0539                     l1198:
  2531  0539  1C41               	btfss	___fldiv@b+3,0
  2532  053A  2D3C               	goto	u1221
  2533  053B  2D3D               	goto	u1220
  2534  053C                     u1221:
  2535  053C  2D59               	goto	l1204
  2536  053D                     u1220:
  2537  053D                     l1200:
  2538  053D  083E               	movf	___fldiv@b,w
  2539  053E  00C2               	movwf	??___fldiv
  2540  053F  083F               	movf	___fldiv@b+1,w
  2541  0540  00C3               	movwf	??___fldiv+1
  2542  0541  0840               	movf	___fldiv@b+2,w
  2543  0542  00C4               	movwf	??___fldiv+2
  2544  0543  0841               	movf	___fldiv@b+3,w
  2545  0544  00C5               	movwf	??___fldiv+3
  2546  0545  3001               	movlw	1
  2547  0546  00C6               	movwf	??___fldiv+4
  2548  0547                     u1235:
  2549  0547  37C5               	asrf	??___fldiv+3,f
  2550  0548  0CC4               	rrf	??___fldiv+2,f
  2551  0549  0CC3               	rrf	??___fldiv+1,f
  2552  054A  0CC2               	rrf	??___fldiv,f
  2553  054B                     u1230:
  2554  054B  0BC6               	decfsz	??___fldiv+4,f
  2555  054C  2D47               	goto	u1235
  2556  054D  0845               	movf	??___fldiv+3,w
  2557  054E  00C1               	movwf	___fldiv@b+3
  2558  054F  0844               	movf	??___fldiv+2,w
  2559  0550  00C0               	movwf	___fldiv@b+2
  2560  0551  0843               	movf	??___fldiv+1,w
  2561  0552  00BF               	movwf	___fldiv@b+1
  2562  0553  0842               	movf	??___fldiv,w
  2563  0554  00BE               	movwf	___fldiv@b
  2564  0555                     l1202:
  2565  0555  3001               	movlw	1
  2566  0556  07CC               	addwf	___fldiv@new_exp,f
  2567  0557  3000               	movlw	0
  2568  0558  3DCD               	addwfc	___fldiv@new_exp+1,f
  2569  0559                     l1204:
  2570  0559  084D               	movf	___fldiv@new_exp+1,w
  2571  055A  3A80               	xorlw	128
  2572  055B  00C2               	movwf	??___fldiv
  2573  055C  3080               	movlw	128
  2574  055D  0242               	subwf	??___fldiv,w
  2575  055E  1D03               	skipz
  2576  055F  2D62               	goto	u1245
  2577  0560  30FF               	movlw	255
  2578  0561  024C               	subwf	___fldiv@new_exp,w
  2579  0562                     u1245:
  2580  0562  1C03               	skipc
  2581  0563  2D65               	goto	u1241
  2582  0564  2D66               	goto	u1240
  2583  0565                     u1241:
  2584  0565  2D73               	goto	l558
  2585  0566                     u1240:
  2586  0566                     l1206:
  2587  0566  30FF               	movlw	255
  2588  0567  0020               	movlb	0	; select bank0
  2589  0568  00CC               	movwf	___fldiv@new_exp
  2590  0569  3000               	movlw	0
  2591  056A  00CD               	movwf	___fldiv@new_exp+1
  2592  056B  3000               	movlw	0
  2593  056C  00C1               	movwf	___fldiv@b+3
  2594  056D  3000               	movlw	0
  2595  056E  00C0               	movwf	___fldiv@b+2
  2596  056F  3000               	movlw	0
  2597  0570  00BF               	movwf	___fldiv@b+1
  2598  0571  3000               	movlw	0
  2599  0572  00BE               	movwf	___fldiv@b
  2600  0573                     l558:
  2601  0573  0020               	movlb	0	; select bank0
  2602  0574  084D               	movf	___fldiv@new_exp+1,w
  2603  0575  3A80               	xorlw	128
  2604  0576  00C2               	movwf	??___fldiv
  2605  0577  3080               	movlw	128
  2606  0578  0242               	subwf	??___fldiv,w
  2607  0579  1D03               	skipz
  2608  057A  2D7D               	goto	u1255
  2609  057B  3001               	movlw	1
  2610  057C  024C               	subwf	___fldiv@new_exp,w
  2611  057D                     u1255:
  2612  057D  1803               	skipnc
  2613  057E  2D80               	goto	u1251
  2614  057F  2D81               	goto	u1250
  2615  0580                     u1251:
  2616  0580  2D8D               	goto	l559
  2617  0581                     u1250:
  2618  0581                     l1208:
  2619  0581  0020               	movlb	0	; select bank0
  2620  0582  01CC               	clrf	___fldiv@new_exp
  2621  0583  01CD               	clrf	___fldiv@new_exp+1
  2622  0584                     l1210:
  2623  0584  3000               	movlw	0
  2624  0585  00C1               	movwf	___fldiv@b+3
  2625  0586  3000               	movlw	0
  2626  0587  00C0               	movwf	___fldiv@b+2
  2627  0588  3000               	movlw	0
  2628  0589  00BF               	movwf	___fldiv@b+1
  2629  058A  3000               	movlw	0
  2630  058B  00BE               	movwf	___fldiv@b
  2631  058C                     l1212:
  2632  058C  01CB               	clrf	___fldiv@sign
  2633  058D                     l559:
  2634  058D  0020               	movlb	0	; select bank0
  2635  058E  084C               	movf	___fldiv@new_exp,w
  2636  058F  00C2               	movwf	??___fldiv
  2637  0590  0842               	movf	??___fldiv,w
  2638  0591  00D2               	movwf	___fldiv@bexp
  2639  0592                     l1214:
  2640  0592  1C52               	btfss	___fldiv@bexp,0
  2641  0593  2D95               	goto	u1261
  2642  0594  2D96               	goto	u1260
  2643  0595                     u1261:
  2644  0595  2D98               	goto	l1218
  2645  0596                     u1260:
  2646  0596                     l1216:
  2647  0596  17C0               	bsf	___fldiv@b+2,7
  2648  0597  2D9C               	goto	l561
  2649  0598                     l1218:
  2650  0598  307F               	movlw	127
  2651  0599  00C2               	movwf	??___fldiv
  2652  059A  0842               	movf	??___fldiv,w
  2653  059B  05C0               	andwf	___fldiv@b+2,f
  2654  059C                     l561:
  2655  059C  3652               	lsrf	___fldiv@bexp,w
  2656  059D  00C2               	movwf	??___fldiv
  2657  059E  0842               	movf	??___fldiv,w
  2658  059F  00C1               	movwf	___fldiv@b+3
  2659  05A0  084B               	movf	___fldiv@sign,w
  2660  05A1  00C2               	movwf	??___fldiv
  2661  05A2  0842               	movf	??___fldiv,w
  2662  05A3  04C1               	iorwf	___fldiv@b+3,f
  2663  05A4  2C61               	goto	l1128
  2664  05A5                     l539:
  2665  05A5  0008               	return
  2666  05A6                     __end_of___fldiv:
  2667  007E                     btemp	set	126	;btemp
  2668  007E                     wtemp0	set	126

Data Sizes:
    Strings     0
    Constant    0
    Data        0
    BSS         0
    Persistent  32
    Stack       0

Auto Spaces:
    Space          Size  Autos    Used
    COMMON           14     14      14
    BANK0            80     74      74
    BANK1            80      0       0
    BANK2            80      0       0
    BANK3            80      0       0
    BANK4            80      0       0
    BANK5            80      0       0
    BANK6            16      0       0

Pointer List with Targets:

    None.

Critical Paths under _main in COMMON

    _main->___xxtofl
    ___fltol->___xxtofl
    ___flmul->___xxtofl
    ___fldiv->___xxtofl

Critical Paths under _main in BANK0

    _main->___fltol
    ___fltol->___fldiv
    ___fldiv->___flmul

Critical Paths under _main in BANK1

    None.

Critical Paths under _main in BANK2

    None.

Critical Paths under _main in BANK3

    None.

Critical Paths under _main in BANK4

    None.

Critical Paths under _main in BANK5

    None.

Critical Paths under _main in BANK6

    None.

Call Graph Tables:

 ---------------------------------------------------------------------------------
 (Depth) Function   	        Calls       Base Space   Used Autos Params    Refs
 ---------------------------------------------------------------------------------
 (0) _main                                                11    11      0    4615
                                             63 BANK0     11    11      0
                            ___fldiv
                            ___flmul
                            ___fltol
                           ___xxtofl
 ---------------------------------------------------------------------------------
 (1) ___xxtofl                                            14    10      4     398
                                              0 COMMON    14    10      4
 ---------------------------------------------------------------------------------
 (1) ___fltol                                             11     7      4     305
                                             52 BANK0     11     7      4
                            ___fldiv (ARG)
                            ___flmul (ARG)
                           ___xxtofl (ARG)
 ---------------------------------------------------------------------------------
 (1) ___flmul                                             26    18      8    2569
                                              0 BANK0     26    18      8
                          __Umul8_16
                           ___xxtofl (ARG)
 ---------------------------------------------------------------------------------
 (2) __Umul8_16                                            9     7      2     799
                                              0 COMMON     9     7      2
 ---------------------------------------------------------------------------------
 (1) ___fldiv                                             26    18      8    1273
                                             26 BANK0     26    18      8
                            ___flmul (ARG)
                           ___xxtofl (ARG)
 ---------------------------------------------------------------------------------
 Estimated maximum stack depth 2
 ---------------------------------------------------------------------------------

 Call Graph Graphs:

 _main (ROOT)
   ___fldiv
     ___flmul (ARG)
       __Umul8_16
       ___xxtofl (ARG)
     ___xxtofl (ARG)
   ___flmul
     __Umul8_16
     ___xxtofl (ARG)
   ___fltol
     ___fldiv (ARG)
       ___flmul (ARG)
         __Umul8_16
         ___xxtofl (ARG)
       ___xxtofl (ARG)
     ___flmul (ARG)
       __Umul8_16
       ___xxtofl (ARG)
     ___xxtofl (ARG)
   ___xxtofl

 Address spaces:
Name               Size   Autos  Total    Cost      Usage
BIGRAM             1F0      0       0       0        0.0%
EEDATA             100      0       0       0        0.0%
NULL                 0      0       0       0        0.0%
CODE                 0      0       0       0        0.0%
BITCOMMON            E      0       0       1        0.0%
BITSFR0              0      0       0       1        0.0%
SFR0                 0      0       0       1        0.0%
COMMON               E      E       E       2      100.0%
BITSFR1              0      0       0       2        0.0%
SFR1                 0      0       0       2        0.0%
BITSFR2              0      0       0       3        0.0%
SFR2                 0      0       0       3        0.0%
STACK                0      0       0       3        0.0%
BITSFR3              0      0       0       4        0.0%
SFR3                 0      0       0       4        0.0%
ABS                  0      0       0       4        0.0%
BITBANK0            50      0       0       5        0.0%
BITSFR4              0      0       0       5        0.0%
SFR4                 0      0       0       5        0.0%
BANK0               50     4A      4A       6       92.5%
BITSFR5              0      0       0       6        0.0%
SFR5                 0      0       0       6        0.0%
BITBANK1            50      0       0       7        0.0%
BITSFR6              0      0       0       7        0.0%
SFR6                 0      0       0       7        0.0%
BANK1               50      0       0       8        0.0%
BITSFR7              0      0       0       8        0.0%
SFR7                 0      0       0       8        0.0%
BITBANK2            50      0       0       9        0.0%
BITSFR8              0      0       0       9        0.0%
SFR8                 0      0       0       9        0.0%
BANK2               50      0       0      10        0.0%
BITSFR9              0      0       0      10        0.0%
SFR9                 0      0       0      10        0.0%
BITBANK3            50      0       0      11        0.0%
BITSFR10             0      0       0      11        0.0%
SFR10                0      0       0      11        0.0%
BANK3               50      0       0      12        0.0%
BITSFR11             0      0       0      12        0.0%
SFR11                0      0       0      12        0.0%
BITBANK4            50      0       0      13        0.0%
BITSFR12             0      0       0      13        0.0%
SFR12                0      0       0      13        0.0%
BANK4               50      0       0      14        0.0%
BITSFR13             0      0       0      14        0.0%
SFR13                0      0       0      14        0.0%
BITBANK5            50      0       0      15        0.0%
BITSFR14             0      0       0      15        0.0%
SFR14                0      0       0      15        0.0%
BANK5               50      0       0      16        0.0%
BITSFR15             0      0       0      16        0.0%
SFR15                0      0       0      16        0.0%
BITBANK6            10      0       0      17        0.0%
BITSFR16             0      0       0      17        0.0%
SFR16                0      0       0      17        0.0%
BANK6               10      0       0      18        0.0%
BITSFR17             0      0       0      18        0.0%
SFR17                0      0       0      18        0.0%
BITSFR18             0      0       0      19        0.0%
SFR18                0      0       0      19        0.0%
DATA                 0      0       0      19        0.0%
BITSFR19             0      0       0      20        0.0%
SFR19                0      0       0      20        0.0%
BITSFR20             0      0       0      21        0.0%
SFR20                0      0       0      21        0.0%
BITSFR21             0      0       0      22        0.0%
SFR21                0      0       0      22        0.0%
BITSFR22             0      0       0      23        0.0%
SFR22                0      0       0      23        0.0%
BITSFR23             0      0       0      24        0.0%
SFR23                0      0       0      24        0.0%
BITSFR24             0      0       0      25        0.0%
SFR24                0      0       0      25        0.0%
BITSFR25             0      0       0      26        0.0%
SFR25                0      0       0      26        0.0%
BITSFR26             0      0       0      27        0.0%
SFR26                0      0       0      27        0.0%
BITSFR27             0      0       0      28        0.0%
SFR27                0      0       0      28        0.0%
BITSFR28             0      0       0      29        0.0%
SFR28                0      0       0      29        0.0%
BITSFR29             0      0       0      30        0.0%
SFR29                0      0       0      30        0.0%
BITSFR30             0      0       0      31        0.0%
SFR30                0      0       0      31        0.0%
BITSFR31             0      0       0      32        0.0%
SFR31                0      0       0      32        0.0%


Microchip Technology PIC Macro Assembler V2.20 build 20200408173844 
Symbol Table                                                                                   Wed Jun 10 11:33:10 2020

           ___fldiv@aexp 0053             ___fldiv@bexp 0052             ___fldiv@sign 004B  
                     l25 02C5      __Umul8_16@word_mpld 0076                      l381 02A8  
                    l621 0368                      l374 02BD                      l623 03F1  
                    l384 02BD                      l561 059C                      l553 0527  
                    l537 0449                      l634 03BD                      l539 05A5  
                    l635 03C9                      l627 03A3                      l558 0573  
                    l559 058D                      l583 0778                      l577 07FC  
                    l596 0238                      l589 07F0                      l598 0248  
                    u900 0280                      u901 027F                      u910 0287  
                    u911 0286                      u850 0234                      u930 0297  
                    u851 0233                      u931 0296                      u940 029E  
                    u941 029D                      u925 0289                      u870 0244  
                    u871 0243                      u960 02AD                      u880 0255  
                    u865 0239                      u961 02AC                      u881 0254  
                    u970 02B2                      u890 026B                      u971 02B1  
                    u955 02A0                      u980 0400                      u981 03FF  
                    u990 0406                      u991 0405                      u895 0267  
                    wreg 0009             ___flmul@aexp 0032             ___flmul@bexp 0033  
           ___flmul@sign 002D             ___flmul@temp 0038             ___flmul@prod 0034  
           ___fltol@exp1 005E                     l1100 0414                     l1110 042B  
                   l1102 0416                     l1200 053D                     l1120 043F  
                   l1112 042C                     l1104 041E                     l1040 0234  
                   l1210 0584                     l1202 0555                     l1114 0431  
                   l1122 0441                     l1106 0423                     l1042 023F  
                   l1034 0227                     l1050 0255                     l1212 058C  
                   l1204 0559                     l1140 0488                     l1124 0451  
                   l1132 046A                     l1116 0436                     l1108 0427  
                   l1044 0244                     l1036 0229                     l1300 06EE  
                   l1060 027A                     l1214 0592                     l1206 0566  
                   l1150 04A7                     l1142 0490                     l1134 046F  
                   l1126 045D                     l1118 043E                     l1038 0230  
                   l1310 0741                     l1302 0702                     l1230 05B4  
                   l1070 0288                     l1062 027C                     l1054 025E  
                   l1216 0596                     l1208 0581                     l1160 04D3  
                   l1152 04B5                     l1144 0498                     l1128 0461  
                   l1312 0748                     l1320 0758                     l1304 0717  
                   l1240 05C9                     l1232 05B5                     l1224 05A6  
                   l1080 02AD                     l1064 0280                     l1072 0298  
                   l1056 0271                     l1048 0249                     l1400 03E4  
                   l1218 0598                     l1170 04EE                     l1162 04D4  
                   l1154 04B9                     l1146 04A0                     l1138 0478  
                   l1090 0400                     l1322 075C                     l1314 074C  
                   l1306 072E                     l1250 05DF                     l1242 05D1  
                   l1234 05BA                     l1226 05AC                     l1082 02B2  
                   l1058 0272                     l1402 03E8                     l1410 02C0  
                   l1180 0503                     l1172 04F0                     l1164 04DC  
                   l1156 04BA                     l1148 04A2                     l1092 0401  
                   l1084 03F2                     l1340 07A6                     l1332 077D  
                   l1324 075D                     l1316 074D                     l1308 0735  
                   l1260 05FB                     l1252 05E4                     l1244 05D6  
                   l1236 05BF                     l1228 05B0                     l1404 03E9  
                   l1420 0304                     l1412 02C2                     l1190 0524  
                   l1174 04F7                     l1182 0507                     l1158 04C1  
                   l1166 04E0                     l1094 0406                     l1086 03F8  
                   l1350 07D8                     l1334 0782                     l1342 07AA  
                   l1326 0761                     l1318 0754                     l1270 061B  
                   l1262 0600                     l1254 05E9                     l1246 05DA  
                   l1238 05C7                     l1078 029F                     l1414 02C3  
                   l1184 050B                     l1176 04FB                     l1168 04E6  
                   l1096 040B                     l1088 03FC                     l1360 07F4  
                   l1352 07DA                     l1344 07B7                     l1336 078A  
                   l1328 0775                     l1280 0676                     l1272 0628  
                   l1264 0605                     l1256 05F1                     l1248 05DE  
                   l1416 02C9                     l1408 02BE                     l1194 052C  
                   l1186 050C                     l1178 04FC                     l1098 0413  
                   l1354 07E7                     l1346 07C1                     l1338 078E  
                   l1290 06AB                     l1282 0683                     l1274 0642  
                   l1258 05F3                     l1370 0360                     l1418 02DD  
                   l1196 0531                     l1188 0510                     l1356 07EB  
                   l1348 07CF                     l1292 06B2                     l1284 068A  
                   l1276 064F                     l1268 060E                     l1380 0389  
                   l1372 0370                     l1364 0347                     l1198 0539  
                   l1358 07EC                     l1294 06C6                     l1286 0697  
                   l1278 0669                     l1390 03B3                     l1382 0390  
                   l1366 034C                     l1296 06CD                     l1288 069E  
                   l1392 03B7                     l1384 0394                     l1376 0379  
                   l1368 0350                     l1298 06E1                     l1394 03C1  
                   l1386 039C                     l1378 037E                     l1396 03CB  
                   l1388 03AA                     l1398 03DF                     u1000 040B  
                   u1001 040A                     u1010 042B                     u1011 042A  
                   u1020 0431                     u1021 0430                     u1110 04D3  
                   u1030 0436                     u1111 04D2                     u1031 0435  
                   u1200 052B                     u1120 04E6                     u1040 0451  
                   u1201 052A                     u1121 04E5                     u1105 04BB  
                   u1041 0450                     u1210 0531                     u1130 04EE  
                   u1050 046F                     u1211 0530                     u1131 04ED  
                   u1115 04CF                     u1051 046E                     u1220 053D  
                   u1060 04A7                     u1300 05DE                     u1221 053C  
                   u1061 04A6                     u1301 05DD                     u1230 054B  
                   u1150 04FB                     u1310 05E4                     u1151 04FA  
                   u1311 05E3                     u1240 0566                     u1320 05E9  
                   u1241 0565                     u1145 04F1                     u1321 05E8  
                   u1250 0581                     u1170 050B                     u1090 04B9  
                   u1410 074C                     u1330 0600                     u1251 0580  
                   u1235 0547                     u1171 050A                     u1091 04B8  
                   u1075 04A8                     u1411 074B                     u1331 05FF  
                   u1260 0596                     u1180 0510                     u1500 07B7  
                   u1340 0605                     u1261 0595                     u1245 0562  
                   u1181 050F                     u1165 04FD                     u1085 04AF  
                   u1501 07B6                     u1405 0742                     u1341 0604  
                   u1190 0524                     u1510 07CF                     u1430 075C  
                   u1270 05B4                     u1255 057D                     u1191 0523  
                   u1511 07CE                     u1431 075B                     u1271 05B3  
                   u1520 07EB                     u1440 0761                     u1280 05BA  
                   u1521 07EA                     u1505 07B3                     u1441 0760  
                   u1425 074E                     u1281 05B9                     u1450 0775  
                   u1370 070D                     u1290 05BF                     u1610 03B7  
                   u1530 034C                     u1515 07CB                     u1451 0774  
                   u1355 0684                     u1291 05BE                     u1611 03B6  
                   u1531 034B                     u1460 077C                     u1380 0724  
                   u1620 03BD                     u1540 0350                     u1461 077B  
                   u1365 06B3                     u1621 03BC                     u1605 03AD  
                   u1541 034F                     u1470 0782                     u1630 03C1  
                   u1550 0370                     u1471 0781                     u1375 0709  
                   u1631 03C0                     u1551 036F                     u1480 078E  
                   u1640 03D5                     u1481 078D                     u1385 0720  
                   u1490 079C                     u1650 03E4                     u1570 038F  
                   u1395 072F                     u1651 03E3                     u1571 038E  
                   u1660 03E8                     u1661 03E7                     u1645 03D1  
                   u1565 0383                     u1590 03A9                     u1670 02C9  
                   u1495 0798                     u1591 03A8                     u1671 02C8  
                   u1585 039D                     _main 02BE                     btemp 007E  
                   start 0002          ___fldiv@new_exp 004C            ___fltol@sign1 005D  
                  ?_main 0070          __end_of___fldiv 05A6          __end_of___flmul 07FD  
        __end_of___fltol 02BE                    main@a 0068                    main@v 0066  
                  status 0003                    wtemp0 007E          __initialization 07FD  
           __end_of_main 0346                   ??_main 005F                   _ADCON0 009D  
                 _ADCON1 009E                   _ADRESH 009C                   _ADRESL 009B  
       __end_of___xxtofl 03F2                ??___fldiv 0042                ??___flmul 0028  
              ??___fltol 0058       __size_of__Umul8_16 0023             ___xxtofl@arg 007A  
           ___xxtofl@exp 0079             ___xxtofl@val 0070  __end_of__initialization 07FD  
             ___fltol@f1 0054           __pcstackCOMMON 0070        __end_of__Umul8_16 0249  
             __pmaintext 02BE                  _DACCON0 0118                  _DACCON1 0119  
              ?___xxtofl 0070                  ___fldiv 03F2                  ___flmul 05A6  
                ___fltol 0249                  __ptext1 0346                  __ptext2 0249  
                __ptext3 05A6                  __ptext4 0226                  __ptext5 03F2  
             ??___xxtofl 0074     end_of_initialization 07FD            ___xxtofl@sign 0078  
            ___fldiv@grs 004E              ___fldiv@rem 0047              ___flmul@grs 002E  
    start_initialization 07FD                __Umul8_16 0226                ___fldiv@a 003A  
              ___fldiv@b 003E                ___flmul@a 0024                ___flmul@b 0020  
              ___latbits 0002            __pcstackBANK0 0020        __size_of___xxtofl 00AC  
               ?___fldiv 003A                 ?___flmul 0020                 ?___fltol 0054  
             ?__Umul8_16 0070               _ADCON0bits 009D              ??__Umul8_16 0072  
       __size_of___fldiv 01B4         __size_of___flmul 0257         __size_of___fltol 0075  
               ___xxtofl 0346                 _main$716 0062            __size_of_main 0088  
 __Umul8_16@multiplicand 0070     __Umul8_16@multiplier 0078        __Umul8_16@product 0074  
